---
triple:          'arm64-apple-darwin'
binary-path:     "/Users/mengchengxi/Documents/code/C++C/competition/P3304 [SDOI2013] 直径"
relocations:
  - { offset: 0x1CAD6, size: 0x8, addend: 0x0, symName: __ZStL8__ioinit, symObjAddr: 0x856B7, symBinAddr: 0x10000C000, symSize: 0x0 }
  - { offset: 0x1CD84, size: 0x8, addend: 0x0, symName: __ZL3INF, symObjAddr: 0x3160, symBinAddr: 0x100004148, symSize: 0x0 }
  - { offset: 0x1CD9B, size: 0x8, addend: 0x0, symName: __ZL3mod, symObjAddr: 0x3164, symBinAddr: 0x10000414C, symSize: 0x0 }
  - { offset: 0x1CECE, size: 0x8, addend: 0x0, symName: _tree, symObjAddr: 0x856B8, symBinAddr: 0x10000C008, symSize: 0x0 }
  - { offset: 0x1CEE5, size: 0x8, addend: 0x0, symName: _maxn, symObjAddr: 0x856D0, symBinAddr: 0x10000C020, symSize: 0x0 }
  - { offset: 0x1CEFC, size: 0x8, addend: 0x0, symName: _overlap, symObjAddr: 0x856D4, symBinAddr: 0x10000C024, symSize: 0x0 }
  - { offset: 0x1D237, size: 0x8, addend: 0x0, symName: __GLOBAL__sub_I_P3304__SDOI2013________.cpp, symObjAddr: 0x32D0, symBinAddr: 0x10000395C, symSize: 0x14 }
  - { offset: 0x1D24F, size: 0x8, addend: 0x0, symName: __Z41__static_initialization_and_destruction_0v, symObjAddr: 0x326C, symBinAddr: 0x1000038F8, symSize: 0x64 }
  - { offset: 0x1D26D, size: 0x8, addend: 0x0, symName: __ZSt7forwardIRKSt4pairIiiEEOT_RNSt16remove_referenceIS4_E4typeE, symObjAddr: 0x314C, symBinAddr: 0x1000038E4, symSize: 0x14 }
  - { offset: 0x1D2A5, size: 0x8, addend: 0x0, symName: __ZSt7forwardIRSt4pairIiiEEOT_RNSt16remove_referenceIS3_E4typeE, symObjAddr: 0x3138, symBinAddr: 0x1000038D0, symSize: 0x14 }
  - { offset: 0x1D2DB, size: 0x8, addend: 0x0, symName: __ZNSt4pairIiiEaSERKS0_, symObjAddr: 0x3100, symBinAddr: 0x100003898, symSize: 0x38 }
  - { offset: 0x1D312, size: 0x8, addend: 0x0, symName: __ZSt10_ConstructISt4pairIiiEJRKS1_EEvPT_DpOT0_, symObjAddr: 0x30B8, symBinAddr: 0x100003850, symSize: 0x48 }
  - { offset: 0x1D362, size: 0x8, addend: 0x0, symName: __ZNK9__gnu_cxx17__normal_iteratorIPKSt4pairIiiESt6vectorIS2_SaIS2_EEEdeEv, symObjAddr: 0x30A0, symBinAddr: 0x100003838, symSize: 0x18 }
  - { offset: 0x1D38C, size: 0x8, addend: 0x0, symName: __ZN9__gnu_cxx17__normal_iteratorIPKSt4pairIiiESt6vectorIS2_SaIS2_EEEppEv, symObjAddr: 0x3078, symBinAddr: 0x100003810, symSize: 0x28 }
  - { offset: 0x1D3B8, size: 0x8, addend: 0x0, symName: __ZN9__gnu_cxxneIPKSt4pairIiiESt6vectorIS2_SaIS2_EEEEbRKNS_17__normal_iteratorIT_T0_EESD_, symObjAddr: 0x3034, symBinAddr: 0x1000037CC, symSize: 0x44 }
  - { offset: 0x1D420, size: 0x8, addend: 0x0, symName: __ZSt10_ConstructISt4pairIiiEJRS1_EEvPT_DpOT0_, symObjAddr: 0x2FEC, symBinAddr: 0x100003784, symSize: 0x48 }
  - { offset: 0x1D46C, size: 0x8, addend: 0x0, symName: __ZNSt11__copy_moveILb0ELb0ESt26random_access_iterator_tagE8__copy_mIPSt4pairIiiES5_EET0_T_S7_S6_, symObjAddr: 0x2F78, symBinAddr: 0x100003710, symSize: 0x74 }
  - { offset: 0x1D4FB, size: 0x8, addend: 0x0, symName: __ZNSt11__copy_moveILb0ELb0ESt26random_access_iterator_tagE8__copy_mIPKSt4pairIiiEPS4_EET0_T_S9_S8_, symObjAddr: 0x2F04, symBinAddr: 0x10000369C, symSize: 0x74 }
  - { offset: 0x1D58A, size: 0x8, addend: 0x0, symName: __ZSt16__do_uninit_copyIN9__gnu_cxx17__normal_iteratorIPKSt4pairIiiESt6vectorIS3_SaIS3_EEEEPS3_ET0_T_SC_SB_, symObjAddr: 0x2E84, symBinAddr: 0x10000361C, symSize: 0x80 }
  - { offset: 0x1D618, size: 0x8, addend: 0x0, symName: __ZSt16__do_uninit_copyIPSt4pairIiiES2_ET0_T_S4_S3_, symObjAddr: 0x2E20, symBinAddr: 0x1000035B8, symSize: 0x64 }
  - { offset: 0x1D683, size: 0x8, addend: 0x0, symName: __ZSt14__copy_move_a2ILb0EPSt4pairIiiES2_ET1_T0_S4_S3_, symObjAddr: 0x2DF4, symBinAddr: 0x10000358C, symSize: 0x2C }
  - { offset: 0x1D6EF, size: 0x8, addend: 0x0, symName: __ZNK9__gnu_cxx17__normal_iteratorIPSt4pairIiiESt6vectorIS2_SaIS2_EEEplEl, symObjAddr: 0x2DB4, symBinAddr: 0x10000354C, symSize: 0x40 }
  - { offset: 0x1D726, size: 0x8, addend: 0x0, symName: __ZSt14__copy_move_a2ILb0EPKSt4pairIiiEPS1_ET1_T0_S6_S5_, symObjAddr: 0x2D88, symBinAddr: 0x100003520, symSize: 0x2C }
  - { offset: 0x1D792, size: 0x8, addend: 0x0, symName: __ZNK9__gnu_cxx17__normal_iteratorIPKSt4pairIiiESt6vectorIS2_SaIS2_EEE4baseEv, symObjAddr: 0x2D74, symBinAddr: 0x10000350C, symSize: 0x14 }
  - { offset: 0x1D7B8, size: 0x8, addend: 0x0, symName: __ZNSt20__uninitialized_copyILb0EE13__uninit_copyIN9__gnu_cxx17__normal_iteratorIPKSt4pairIiiESt6vectorIS5_SaIS5_EEEEPS5_EET0_T_SE_SD_, symObjAddr: 0x2D48, symBinAddr: 0x1000034E0, symSize: 0x2C }
  - { offset: 0x1D817, size: 0x8, addend: 0x0, symName: __ZNSt12_Vector_baseISt4pairIiiESaIS1_EE17_M_create_storageEm, symObjAddr: 0x2CE8, symBinAddr: 0x100003480, symSize: 0x60 }
  - { offset: 0x1D879, size: 0x8, addend: 0x0, symName: __ZNSt12_Vector_baseISt4pairIiiESaIS1_EE12_Vector_implC1ERKS2_, symObjAddr: 0x2C9C, symBinAddr: 0x100003434, symSize: 0x4C }
  - { offset: 0x1D912, size: 0x8, addend: 0x0, symName: __ZNSt20__uninitialized_copyILb0EE13__uninit_copyIPSt4pairIiiES4_EET0_T_S6_S5_, symObjAddr: 0x2C70, symBinAddr: 0x100003408, symSize: 0x2C }
  - { offset: 0x1D96D, size: 0x8, addend: 0x0, symName: __ZSt12__niter_wrapIPSt4pairIiiEET_RKS3_S3_, symObjAddr: 0x2C58, symBinAddr: 0x1000033F0, symSize: 0x18 }
  - { offset: 0x1D9A9, size: 0x8, addend: 0x0, symName: __ZSt14__copy_move_a1ILb0EPSt4pairIiiES2_ET1_T0_S4_S3_, symObjAddr: 0x2C2C, symBinAddr: 0x1000033C4, symSize: 0x2C }
  - { offset: 0x1DA11, size: 0x8, addend: 0x0, symName: __ZNSt12_Destroy_auxILb1EE9__destroyIN9__gnu_cxx17__normal_iteratorIPSt4pairIiiESt6vectorIS5_SaIS5_EEEEEEvT_SB_, symObjAddr: 0x2C14, symBinAddr: 0x1000033AC, symSize: 0x18 }
  - { offset: 0x1DA45, size: 0x8, addend: 0x0, symName: __ZSt12__niter_wrapIN9__gnu_cxx17__normal_iteratorIPSt4pairIiiESt6vectorIS3_SaIS3_EEEES4_ET_S9_T0_, symObjAddr: 0x2BCC, symBinAddr: 0x100003364, symSize: 0x48 }
  - { offset: 0x1DA92, size: 0x8, addend: 0x0, symName: __ZSt14__copy_move_a1ILb0EPKSt4pairIiiEPS1_ET1_T0_S6_S5_, symObjAddr: 0x2BA0, symBinAddr: 0x100003338, symSize: 0x2C }
  - { offset: 0x1DAFA, size: 0x8, addend: 0x0, symName: __ZSt12__niter_baseIPSt4pairIiiESt6vectorIS1_SaIS1_EEET_N9__gnu_cxx17__normal_iteratorIS6_T0_EE, symObjAddr: 0x2B80, symBinAddr: 0x100003318, symSize: 0x20 }
  - { offset: 0x1DB36, size: 0x8, addend: 0x0, symName: __ZSt12__niter_baseIPKSt4pairIiiESt6vectorIS1_SaIS1_EEET_N9__gnu_cxx17__normal_iteratorIS7_T0_EE, symObjAddr: 0x2B60, symBinAddr: 0x1000032F8, symSize: 0x20 }
  - { offset: 0x1DB72, size: 0x8, addend: 0x0, symName: __ZSt18uninitialized_copyIN9__gnu_cxx17__normal_iteratorIPKSt4pairIiiESt6vectorIS3_SaIS3_EEEEPS3_ET0_T_SC_SB_, symObjAddr: 0x2B2C, symBinAddr: 0x1000032C4, symSize: 0x34 }
  - { offset: 0x1DC53, size: 0x8, addend: 0x0, symName: __ZNSt12_Vector_baseISt4pairIiiESaIS1_EEC2EmRKS2_, symObjAddr: 0x2AD8, symBinAddr: 0x100003270, symSize: 0x54 }
  - { offset: 0x1DC9C, size: 0x8, addend: 0x0, symName: __ZSt18uninitialized_copyIPSt4pairIiiES2_ET0_T_S4_S3_, symObjAddr: 0x2AA4, symBinAddr: 0x10000323C, symSize: 0x34 }
  - { offset: 0x1DD17, size: 0x8, addend: 0x0, symName: __ZSt13__copy_move_aILb0EPSt4pairIiiES2_ET1_T0_S4_S3_, symObjAddr: 0x2A44, symBinAddr: 0x1000031DC, symSize: 0x60 }
  - { offset: 0x1DD7F, size: 0x8, addend: 0x0, symName: __ZSt12__miter_baseIPSt4pairIiiEET_S3_, symObjAddr: 0x2A30, symBinAddr: 0x1000031C8, symSize: 0x14 }
  - { offset: 0x1DDB2, size: 0x8, addend: 0x0, symName: __ZSt8_DestroyIN9__gnu_cxx17__normal_iteratorIPSt4pairIiiESt6vectorIS3_SaIS3_EEEEEvT_S9_, symObjAddr: 0x2A08, symBinAddr: 0x1000031A0, symSize: 0x28 }
  - { offset: 0x1DDF4, size: 0x8, addend: 0x0, symName: __ZSt13__copy_move_aILb0EN9__gnu_cxx17__normal_iteratorIPKSt4pairIiiESt6vectorIS3_SaIS3_EEEENS1_IPS3_S8_EEET1_T0_SD_SC_, symObjAddr: 0x29A8, symBinAddr: 0x100003140, symSize: 0x60 }
  - { offset: 0x1DE5C, size: 0x8, addend: 0x0, symName: __ZSt12__miter_baseIN9__gnu_cxx17__normal_iteratorIPKSt4pairIiiESt6vectorIS3_SaIS3_EEEEET_SA_, symObjAddr: 0x2994, symBinAddr: 0x10000312C, symSize: 0x14 }
  - { offset: 0x1DE8F, size: 0x8, addend: 0x0, symName: __ZSt22__uninitialized_copy_aIN9__gnu_cxx17__normal_iteratorIPKSt4pairIiiESt6vectorIS3_SaIS3_EEEEPS3_S3_ET0_T_SC_SB_RSaIT1_E, symObjAddr: 0x2964, symBinAddr: 0x1000030FC, symSize: 0x30 }
  - { offset: 0x1DF2B, size: 0x8, addend: 0x0, symName: __ZN9__gnu_cxx17__normal_iteratorIPKSt4pairIiiESt6vectorIS2_SaIS2_EEEC1ERKS4_, symObjAddr: 0x293C, symBinAddr: 0x1000030D4, symSize: 0x28 }
  - { offset: 0x1DF5A, size: 0x8, addend: 0x0, symName: __ZNSt6vectorISt4pairIiiESaIS1_EE15_M_erase_at_endEPS1_, symObjAddr: 0x28B4, symBinAddr: 0x10000304C, symSize: 0x88 }
  - { offset: 0x1E05A, size: 0x8, addend: 0x0, symName: __ZNSt6vectorISt4pairIiiESaIS1_EEC1ERKS3_, symObjAddr: 0x27A0, symBinAddr: 0x100002F38, symSize: 0x114 }
  - { offset: 0x1E16F, size: 0x8, addend: 0x0, symName: __ZSt7forwardIRKSt6vectorISt4pairIiiESaIS2_EEEOT_RNSt16remove_referenceIS7_E4typeE, symObjAddr: 0x278C, symBinAddr: 0x100002F24, symSize: 0x14 }
  - { offset: 0x1E1A1, size: 0x8, addend: 0x0, symName: __ZSt22__uninitialized_copy_aIPSt4pairIiiES2_S1_ET0_T_S4_S3_RSaIT1_E, symObjAddr: 0x275C, symBinAddr: 0x100002EF4, symSize: 0x30 }
  - { offset: 0x1E211, size: 0x8, addend: 0x0, symName: __ZSt4copyIPSt4pairIiiES2_ET0_T_S4_S3_, symObjAddr: 0x2714, symBinAddr: 0x100002EAC, symSize: 0x48 }
  - { offset: 0x1E2AA, size: 0x8, addend: 0x0, symName: __ZSt4copyIN9__gnu_cxx17__normal_iteratorIPKSt4pairIiiESt6vectorIS3_SaIS3_EEEENS1_IPS3_S8_EEET0_T_SD_SC_, symObjAddr: 0x26CC, symBinAddr: 0x100002E64, symSize: 0x48 }
  - { offset: 0x1E30C, size: 0x8, addend: 0x0, symName: __ZNSt6vectorISt4pairIiiESaIS1_EE20_M_allocate_and_copyIN9__gnu_cxx17__normal_iteratorIPKS1_S3_EEEEPS1_mT_SB_, symObjAddr: 0x2648, symBinAddr: 0x100002DE0, symSize: 0x84 }
  - { offset: 0x1E383, size: 0x8, addend: 0x0, symName: __ZNKSt6vectorISt4pairIiiESaIS1_EE3endEv, symObjAddr: 0x2620, symBinAddr: 0x100002DB8, symSize: 0x28 }
  - { offset: 0x1E3AD, size: 0x8, addend: 0x0, symName: __ZNKSt6vectorISt4pairIiiESaIS1_EE5beginEv, symObjAddr: 0x25FC, symBinAddr: 0x100002D94, symSize: 0x24 }
  - { offset: 0x1E3D7, size: 0x8, addend: 0x0, symName: __ZNKSt6vectorISt4pairIiiESaIS1_EE8capacityEv, symObjAddr: 0x25D4, symBinAddr: 0x100002D6C, symSize: 0x28 }
  - { offset: 0x1E42E, size: 0x8, addend: 0x0, symName: __ZNSt6vectorISt4pairIiiESaIS1_EE5clearEv, symObjAddr: 0x25A8, symBinAddr: 0x100002D40, symSize: 0x2C }
  - { offset: 0x1E46A, size: 0x8, addend: 0x0, symName: __ZNSt15__new_allocatorISt6vectorISt4pairIiiESaIS2_EEE8allocateEmPKv, symObjAddr: 0x2518, symBinAddr: 0x100002CB0, symSize: 0x90 }
  - { offset: 0x1E4F2, size: 0x8, addend: 0x0, symName: __ZSt19__relocate_object_aISt4pairIiiES1_SaIS1_EEvPT_PT0_RT1_, symObjAddr: 0x2454, symBinAddr: 0x100002BEC, symSize: 0xC4 }
  - { offset: 0x1E624, size: 0x8, addend: 0x0, symName: __ZSt11__addressofISt4pairIiiEEPT_RS2_, symObjAddr: 0x2440, symBinAddr: 0x100002BD8, symSize: 0x14 }
  - { offset: 0x1E66C, size: 0x8, addend: 0x0, symName: __ZSt10_ConstructISt6vectorISt4pairIiiESaIS2_EEJRKS4_EEvPT_DpOT0_, symObjAddr: 0x23C4, symBinAddr: 0x100002B5C, symSize: 0x7C }
  - { offset: 0x1E6BC, size: 0x8, addend: 0x0, symName: __ZNSt6vectorISt4pairIiiESaIS1_EEaSERKS3_, symObjAddr: 0x207C, symBinAddr: 0x100002814, symSize: 0x348 }
  - { offset: 0x1E840, size: 0x8, addend: 0x0, symName: __ZSt11__addressofIKSt6vectorISt4pairIiiESaIS2_EEEPT_RS6_, symObjAddr: 0x2068, symBinAddr: 0x100002800, symSize: 0x14 }
  - { offset: 0x1E872, size: 0x8, addend: 0x0, symName: __ZSt8_DestroyISt6vectorISt4pairIiiESaIS2_EEEvPT_, symObjAddr: 0x2048, symBinAddr: 0x1000027E0, symSize: 0x20 }
  - { offset: 0x1E8A4, size: 0x8, addend: 0x0, symName: __ZSt11__addressofISt6vectorISt4pairIiiESaIS2_EEEPT_RS5_, symObjAddr: 0x2034, symBinAddr: 0x1000027CC, symSize: 0x14 }
  - { offset: 0x1E910, size: 0x8, addend: 0x0, symName: __ZSt14__relocate_a_1IPSt4pairIiiES2_SaIS1_EET0_T_S5_S4_RT1_, symObjAddr: 0x1FB0, symBinAddr: 0x100002748, symSize: 0x84 }
  - { offset: 0x1E999, size: 0x8, addend: 0x0, symName: __ZSt12__niter_baseIPSt4pairIiiEET_S3_, symObjAddr: 0x1F9C, symBinAddr: 0x100002734, symSize: 0x14 }
  - { offset: 0x1E9D0, size: 0x8, addend: 0x0, symName: __ZNSt15__new_allocatorISt4pairIiiEE8allocateEmPKv, symObjAddr: 0x1F20, symBinAddr: 0x1000026B8, symSize: 0x7C }
  - { offset: 0x1EA5C, size: 0x8, addend: 0x0, symName: __ZNKSt12_Vector_baseISt4pairIiiESaIS1_EE19_M_get_Tp_allocatorEv, symObjAddr: 0x1F0C, symBinAddr: 0x1000026A4, symSize: 0x14 }
  - { offset: 0x1EA82, size: 0x8, addend: 0x0, symName: __ZNSt6vectorISt4pairIiiESaIS1_EE11_S_max_sizeERKS2_, symObjAddr: 0x1EB8, symBinAddr: 0x100002650, symSize: 0x54 }
  - { offset: 0x1EB39, size: 0x8, addend: 0x0, symName: __ZSt18__do_uninit_fill_nIPSt6vectorISt4pairIiiESaIS2_EEmS4_ET_S6_T0_RKT1_, symObjAddr: 0x1E28, symBinAddr: 0x1000025C0, symSize: 0x90 }
  - { offset: 0x1EBB1, size: 0x8, addend: 0x0, symName: __ZSt9__fill_a1IPSt6vectorISt4pairIiiESaIS2_EES4_EN9__gnu_cxx11__enable_ifIXntsrSt11__is_scalarIT0_E7__valueEvE6__typeET_SD_RKS9_, symObjAddr: 0x1DD8, symBinAddr: 0x100002570, symSize: 0x50 }
  - { offset: 0x1EC13, size: 0x8, addend: 0x0, symName: __ZNK9__gnu_cxx17__normal_iteratorIPSt6vectorISt4pairIiiESaIS3_EES1_IS5_SaIS5_EEE4baseEv, symObjAddr: 0x1DC4, symBinAddr: 0x10000255C, symSize: 0x14 }
  - { offset: 0x1EC39, size: 0x8, addend: 0x0, symName: __ZNSt12_Destroy_auxILb0EE9__destroyIPSt6vectorISt4pairIiiESaIS4_EEEEvT_S8_, symObjAddr: 0x1D78, symBinAddr: 0x100002510, symSize: 0x4C }
  - { offset: 0x1EC7F, size: 0x8, addend: 0x0, symName: __ZNSt12_Vector_baseISt6vectorISt4pairIiiESaIS2_EESaIS4_EE11_M_allocateEm, symObjAddr: 0x1D28, symBinAddr: 0x1000024C0, symSize: 0x50 }
  - { offset: 0x1ED14, size: 0x8, addend: 0x0, symName: __ZSt12__relocate_aIPSt4pairIiiES2_SaIS1_EET0_T_S5_S4_RT1_, symObjAddr: 0x1CCC, symBinAddr: 0x100002464, symSize: 0x5C }
  - { offset: 0x1EDB4, size: 0x8, addend: 0x0, symName: __ZNK9__gnu_cxx17__normal_iteratorIPSt4pairIiiESt6vectorIS2_SaIS2_EEE4baseEv, symObjAddr: 0x1CB8, symBinAddr: 0x100002450, symSize: 0x14 }
  - { offset: 0x1EE06, size: 0x8, addend: 0x0, symName: __ZN9__gnu_cxx17__normal_iteratorIPSt4pairIiiESt6vectorIS2_SaIS2_EEEC1ERKS3_, symObjAddr: 0x1C90, symBinAddr: 0x100002428, symSize: 0x28 }
  - { offset: 0x1EE35, size: 0x8, addend: 0x0, symName: __ZNKSt6vectorISt4pairIiiESaIS1_EE8max_sizeEv, symObjAddr: 0x1C70, symBinAddr: 0x100002408, symSize: 0x20 }
  - { offset: 0x1EE5B, size: 0x8, addend: 0x0, symName: __ZSt8__fill_aIPSt6vectorISt4pairIiiESaIS2_EES4_EvT_S6_RKT0_, symObjAddr: 0x1C40, symBinAddr: 0x1000023D8, symSize: 0x30 }
  - { offset: 0x1EEB9, size: 0x8, addend: 0x0, symName: __ZNSt22__uninitialized_fill_nILb0EE15__uninit_fill_nIPSt6vectorISt4pairIiiESaIS4_EEmS6_EET_S8_T0_RKT1_, symObjAddr: 0x1C14, symBinAddr: 0x1000023AC, symSize: 0x2C }
  - { offset: 0x1EF20, size: 0x8, addend: 0x0, symName: __ZSt9__fill_a1IPSt6vectorISt4pairIiiESaIS2_EES0_IS4_SaIS4_EES4_EvN9__gnu_cxx17__normal_iteratorIT_T0_EESC_RKT1_, symObjAddr: 0x1BC4, symBinAddr: 0x10000235C, symSize: 0x50 }
  - { offset: 0x1EF87, size: 0x8, addend: 0x0, symName: __ZSt8_DestroyIPSt6vectorISt4pairIiiESaIS2_EEEvT_S6_, symObjAddr: 0x1B9C, symBinAddr: 0x100002334, symSize: 0x28 }
  - { offset: 0x1EFCD, size: 0x8, addend: 0x0, symName: __ZNSt12_Vector_baseISt6vectorISt4pairIiiESaIS2_EESaIS4_EE17_M_create_storageEm, symObjAddr: 0x1B30, symBinAddr: 0x1000022C8, symSize: 0x6C }
  - { offset: 0x1F02F, size: 0x8, addend: 0x0, symName: __ZNSt12_Vector_baseISt6vectorISt4pairIiiESaIS2_EESaIS4_EE12_Vector_implC1ERKS5_, symObjAddr: 0x1AE4, symBinAddr: 0x10000227C, symSize: 0x4C }
  - { offset: 0x1F0D5, size: 0x8, addend: 0x0, symName: __ZNSt6vectorIS_ISt4pairIiiESaIS1_EESaIS3_EE11_S_max_sizeERKS4_, symObjAddr: 0x1A88, symBinAddr: 0x100002220, symSize: 0x5C }
  - { offset: 0x1F190, size: 0x8, addend: 0x0, symName: __ZNK9__gnu_cxx17__normal_iteratorIPSt4pairIiiESt6vectorIS2_SaIS2_EEEdeEv, symObjAddr: 0x1A70, symBinAddr: 0x100002208, symSize: 0x18 }
  - { offset: 0x1F1BA, size: 0x8, addend: 0x0, symName: __ZNK9__gnu_cxx17__normal_iteratorIPSt4pairIiiESt6vectorIS2_SaIS2_EEEmiEl, symObjAddr: 0x1A2C, symBinAddr: 0x1000021C4, symSize: 0x44 }
  - { offset: 0x1F1F1, size: 0x8, addend: 0x0, symName: __ZNSt6vectorISt4pairIiiESaIS1_EE11_S_relocateEPS1_S4_S4_RS2_, symObjAddr: 0x19F8, symBinAddr: 0x100002190, symSize: 0x34 }
  - { offset: 0x1F24E, size: 0x8, addend: 0x0, symName: __ZSt12__to_addressISt4pairIiiEEPT_S3_, symObjAddr: 0x19E4, symBinAddr: 0x10000217C, symSize: 0x14 }
  - { offset: 0x1F284, size: 0x8, addend: 0x0, symName: __ZNSt12_Vector_baseISt4pairIiiESaIS1_EE11_M_allocateEm, symObjAddr: 0x1994, symBinAddr: 0x10000212C, symSize: 0x50 }
  - { offset: 0x1F2EE, size: 0x8, addend: 0x0, symName: __ZN9__gnu_cxxmiIPSt4pairIiiESt6vectorIS2_SaIS2_EEEENS_17__normal_iteratorIT_T0_E15difference_typeERKSA_SD_, symObjAddr: 0x1954, symBinAddr: 0x1000020EC, symSize: 0x40 }
  - { offset: 0x1F33F, size: 0x8, addend: 0x0, symName: __ZNSt6vectorISt4pairIiiESaIS1_EE5beginEv, symObjAddr: 0x1930, symBinAddr: 0x1000020C8, symSize: 0x24 }
  - { offset: 0x1F369, size: 0x8, addend: 0x0, symName: __ZNSt6vectorISt4pairIiiESaIS1_EE3endEv, symObjAddr: 0x1908, symBinAddr: 0x1000020A0, symSize: 0x28 }
  - { offset: 0x1F393, size: 0x8, addend: 0x0, symName: __ZNKSt6vectorISt4pairIiiESaIS1_EE12_M_check_lenEmPKc, symObjAddr: 0x1838, symBinAddr: 0x100001FD0, symSize: 0xD0 }
  - { offset: 0x1F42E, size: 0x8, addend: 0x0, symName: __ZSt10__fill_n_aIPSt6vectorISt4pairIiiESaIS2_EEmS4_ET_S6_T0_RKT1_St26random_access_iterator_tag, symObjAddr: 0x17B4, symBinAddr: 0x100001F4C, symSize: 0x84 }
  - { offset: 0x1F4B4, size: 0x8, addend: 0x0, symName: __ZSt20uninitialized_fill_nIPSt6vectorISt4pairIiiESaIS2_EEmS4_ET_S6_T0_RKT1_, symObjAddr: 0x1784, symBinAddr: 0x100001F1C, symSize: 0x30 }
  - { offset: 0x1F52C, size: 0x8, addend: 0x0, symName: __ZSt8__fill_aIN9__gnu_cxx17__normal_iteratorIPSt6vectorISt4pairIiiESaIS4_EES2_IS6_SaIS6_EEEES6_EvT_SB_RKT0_, symObjAddr: 0x1754, symBinAddr: 0x100001EEC, symSize: 0x30 }
  - { offset: 0x1F5B6, size: 0x8, addend: 0x0, symName: __ZN9__gnu_cxx17__normal_iteratorIPSt6vectorISt4pairIiiESaIS3_EES1_IS5_SaIS5_EEEC1ERKS6_, symObjAddr: 0x172C, symBinAddr: 0x100001EC4, symSize: 0x28 }
  - { offset: 0x1F5E5, size: 0x8, addend: 0x0, symName: __ZNSt12_Vector_baseISt6vectorISt4pairIiiESaIS2_EESaIS4_EE17_Vector_impl_data12_M_copy_dataERKS7_, symObjAddr: 0x16E4, symBinAddr: 0x100001E7C, symSize: 0x48 }
  - { offset: 0x1F65A, size: 0x8, addend: 0x0, symName: __ZNSt6vectorIS_ISt4pairIiiESaIS1_EESaIS3_EE18_M_fill_initializeEmRKS3_, symObjAddr: 0x168C, symBinAddr: 0x100001E24, symSize: 0x58 }
  - { offset: 0x1F6DC, size: 0x8, addend: 0x0, symName: __ZNSt12_Vector_baseISt6vectorISt4pairIiiESaIS2_EESaIS4_EEC2EmRKS5_, symObjAddr: 0x1638, symBinAddr: 0x100001DD0, symSize: 0x54 }
  - { offset: 0x1F710, size: 0x8, addend: 0x0, symName: __ZNSt6vectorIS_ISt4pairIiiESaIS1_EESaIS3_EE17_S_check_init_lenEmRKS4_, symObjAddr: 0x15B4, symBinAddr: 0x100001D4C, symSize: 0x84 }
  - { offset: 0x1F7C2, size: 0x8, addend: 0x0, symName: __ZNSt12_Destroy_auxILb1EE9__destroyIPSt4pairIiiEEEvT_S5_, symObjAddr: 0x159C, symBinAddr: 0x100001D34, symSize: 0x18 }
  - { offset: 0x1F7FA, size: 0x8, addend: 0x0, symName: __ZNSt15__new_allocatorISt4pairIiiEE10deallocateEPS1_m, symObjAddr: 0x156C, symBinAddr: 0x100001D04, symSize: 0x30 }
  - { offset: 0x1F844, size: 0x8, addend: 0x0, symName: __ZNSt15__new_allocatorISt6vectorISt4pairIiiESaIS2_EEE10deallocateEPS4_m, symObjAddr: 0x1530, symBinAddr: 0x100001CC8, symSize: 0x3C }
  - { offset: 0x1F88E, size: 0x8, addend: 0x0, symName: __ZNSt6vectorISt4pairIiiESaIS1_EE4backEv, symObjAddr: 0x14F8, symBinAddr: 0x100001C90, symSize: 0x38 }
  - { offset: 0x1F8B8, size: 0x8, addend: 0x0, symName: __ZNSt6vectorISt4pairIiiESaIS1_EE17_M_realloc_appendIJS1_EEEvDpOT_, symObjAddr: 0x133C, symBinAddr: 0x100001AD4, symSize: 0x1BC }
  - { offset: 0x1FA3C, size: 0x8, addend: 0x0, symName: __ZZNSt6vectorISt4pairIiiESaIS1_EE17_M_realloc_appendIJS1_EEEvDpOT_EN6_GuardC1EPS1_mRS2_, symObjAddr: 0x1298, symBinAddr: 0x100001A30, symSize: 0x44 }
  - { offset: 0x1FA81, size: 0x8, addend: 0x0, symName: __ZZNSt6vectorISt4pairIiiESaIS1_EE17_M_realloc_appendIJS1_EEEvDpOT_EN6_GuardD1Ev, symObjAddr: 0x12DC, symBinAddr: 0x100001A74, symSize: 0x60 }
  - { offset: 0x1FBBA, size: 0x8, addend: 0x0, symName: __ZSt7forwardISt4pairIiiEEOT_RNSt16remove_referenceIS2_E4typeE, symObjAddr: 0x1284, symBinAddr: 0x100001A1C, symSize: 0x14 }
  - { offset: 0x1FBEC, size: 0x8, addend: 0x0, symName: __ZSt6fill_nIPSt6vectorISt4pairIiiESaIS2_EEmS4_ET_S6_T0_RKT1_, symObjAddr: 0x123C, symBinAddr: 0x1000019D4, symSize: 0x48 }
  - { offset: 0x1FC78, size: 0x8, addend: 0x0, symName: __ZNSt6vectorIS_ISt4pairIiiESaIS1_EESaIS3_EE15_M_erase_at_endEPS3_, symObjAddr: 0x11A8, symBinAddr: 0x100001940, symSize: 0x94 }
  - { offset: 0x1FD09, size: 0x8, addend: 0x0, symName: __ZSt24__uninitialized_fill_n_aIPSt6vectorISt4pairIiiESaIS2_EEmS4_S4_ET_S6_T0_RKT1_RSaIT2_E, symObjAddr: 0x1178, symBinAddr: 0x100001910, symSize: 0x30 }
  - { offset: 0x1FD82, size: 0x8, addend: 0x0, symName: __ZSt4fillIN9__gnu_cxx17__normal_iteratorIPSt6vectorISt4pairIiiESaIS4_EES2_IS6_SaIS6_EEEES6_EvT_SB_RKT0_, symObjAddr: 0x1148, symBinAddr: 0x1000018E0, symSize: 0x30 }
  - { offset: 0x1FDE4, size: 0x8, addend: 0x0, symName: __ZNSt6vectorIS_ISt4pairIiiESaIS1_EESaIS3_EE3endEv, symObjAddr: 0x1120, symBinAddr: 0x1000018B8, symSize: 0x28 }
  - { offset: 0x1FE0E, size: 0x8, addend: 0x0, symName: __ZNSt6vectorIS_ISt4pairIiiESaIS1_EESaIS3_EE5beginEv, symObjAddr: 0x10FC, symBinAddr: 0x100001894, symSize: 0x24 }
  - { offset: 0x1FE38, size: 0x8, addend: 0x0, symName: __ZNSt12_Vector_baseISt6vectorISt4pairIiiESaIS2_EESaIS4_EE17_Vector_impl_data12_M_swap_dataERS7_, symObjAddr: 0x10B0, symBinAddr: 0x100001848, symSize: 0x4C }
  - { offset: 0x1FEA6, size: 0x8, addend: 0x0, symName: __ZNSt6vectorIS_ISt4pairIiiESaIS1_EESaIS3_EED1Ev, symObjAddr: 0x1054, symBinAddr: 0x1000017EC, symSize: 0x5C }
  - { offset: 0x1FF46, size: 0x8, addend: 0x0, symName: __ZNSt6vectorIS_ISt4pairIiiESaIS1_EESaIS3_EEC1EmRKS3_RKS4_, symObjAddr: 0xFE4, symBinAddr: 0x10000177C, symSize: 0x70 }
  - { offset: 0x1FF87, size: 0x8, addend: 0x0, symName: __ZNSt12_Vector_baseISt6vectorISt4pairIiiESaIS2_EESaIS4_EE19_M_get_Tp_allocatorEv, symObjAddr: 0xFD0, symBinAddr: 0x100001768, symSize: 0x14 }
  - { offset: 0x1FFB1, size: 0x8, addend: 0x0, symName: __ZNKSt6vectorIS_ISt4pairIiiESaIS1_EESaIS3_EE8capacityEv, symObjAddr: 0xF9C, symBinAddr: 0x100001734, symSize: 0x34 }
  - { offset: 0x1FFDB, size: 0x8, addend: 0x0, symName: __ZNKSt6vectorIS_ISt4pairIiiESaIS1_EESaIS3_EE4sizeEv, symObjAddr: 0xF68, symBinAddr: 0x100001700, symSize: 0x34 }
  - { offset: 0x20001, size: 0x8, addend: 0x0, symName: __ZSt8_DestroyIPSt4pairIiiEEvT_S3_, symObjAddr: 0xF40, symBinAddr: 0x1000016D8, symSize: 0x28 }
  - { offset: 0x200D7, size: 0x8, addend: 0x0, symName: __ZNSt6vectorISt4pairIiiESaIS1_EE12emplace_backIJS1_EEERS1_DpOT_, symObjAddr: 0xE68, symBinAddr: 0x100001600, symSize: 0xD8 }
  - { offset: 0x20188, size: 0x8, addend: 0x0, symName: __ZSt4moveIRSt4pairIiiEEONSt16remove_referenceIT_E4typeEOS4_, symObjAddr: 0xE54, symBinAddr: 0x1000015EC, symSize: 0x14 }
  - { offset: 0x201BE, size: 0x8, addend: 0x0, symName: __ZNSt6vectorIS_ISt4pairIiiESaIS1_EESaIS3_EE14_M_fill_assignEmRKS3_, symObjAddr: 0xD14, symBinAddr: 0x1000014AC, symSize: 0x140 }
  - { offset: 0x2029F, size: 0x8, addend: 0x0, symName: __ZNSt12_Vector_baseISt4pairIiiESaIS1_EE19_M_get_Tp_allocatorEv, symObjAddr: 0xD00, symBinAddr: 0x100001498, symSize: 0x14 }
  - { offset: 0x202C9, size: 0x8, addend: 0x0, symName: __ZNSt12_Vector_baseISt4pairIiiESaIS1_EE13_M_deallocateEPS1_m, symObjAddr: 0xCA8, symBinAddr: 0x100001440, symSize: 0x58 }
  - { offset: 0x2036F, size: 0x8, addend: 0x0, symName: __ZNSt15__new_allocatorISt4pairIiiEED2Ev, symObjAddr: 0xC94, symBinAddr: 0x10000142C, symSize: 0x14 }
  - { offset: 0x203AF, size: 0x8, addend: 0x0, symName: __ZNSt12_Vector_baseISt4pairIiiESaIS1_EE17_Vector_impl_dataC2Ev, symObjAddr: 0xC68, symBinAddr: 0x100001400, symSize: 0x2C }
  - { offset: 0x203ED, size: 0x8, addend: 0x0, symName: __ZSt7forwardIRiEOT_RNSt16remove_referenceIS1_E4typeE, symObjAddr: 0xC54, symBinAddr: 0x1000013EC, symSize: 0x14 }
  - { offset: 0x20423, size: 0x8, addend: 0x0, symName: __ZNSt12_Vector_baseISt6vectorISt4pairIiiESaIS2_EESaIS4_EE13_M_deallocateEPS4_m, symObjAddr: 0xBFC, symBinAddr: 0x100001394, symSize: 0x58 }
  - { offset: 0x204C9, size: 0x8, addend: 0x0, symName: __ZNSt15__new_allocatorISt6vectorISt4pairIiiESaIS2_EEED2Ev, symObjAddr: 0xBE8, symBinAddr: 0x100001380, symSize: 0x14 }
  - { offset: 0x20509, size: 0x8, addend: 0x0, symName: __ZNSt12_Vector_baseISt6vectorISt4pairIiiESaIS2_EESaIS4_EE17_Vector_impl_dataC1Ev, symObjAddr: 0xBBC, symBinAddr: 0x100001354, symSize: 0x2C }
  - { offset: 0x20533, size: 0x8, addend: 0x0, symName: __ZNSt12_Vector_baseISt6vectorISt4pairIiiESaIS2_EESaIS4_EE17_Vector_impl_dataC2Ev, symObjAddr: 0xB90, symBinAddr: 0x100001328, symSize: 0x2C }
  - { offset: 0x2056F, size: 0x8, addend: 0x0, symName: __ZNSt6vectorISt4pairIiiESaIS1_EE9push_backEOS1_, symObjAddr: 0xB60, symBinAddr: 0x1000012F8, symSize: 0x30 }
  - { offset: 0x205AA, size: 0x8, addend: 0x0, symName: __ZNSt6vectorIS_ISt4pairIiiESaIS1_EESaIS3_EE6assignEmRKS3_, symObjAddr: 0xB30, symBinAddr: 0x1000012C8, symSize: 0x30 }
  - { offset: 0x2061A, size: 0x8, addend: 0x0, symName: __ZNSt6vectorISt4pairIiiESaIS1_EED1Ev, symObjAddr: 0xAD4, symBinAddr: 0x10000126C, symSize: 0x5C }
  - { offset: 0x2069A, size: 0x8, addend: 0x0, symName: __ZNSt12_Vector_baseISt4pairIiiESaIS1_EED2Ev, symObjAddr: 0xA84, symBinAddr: 0x10000121C, symSize: 0x50 }
  - { offset: 0x206FA, size: 0x8, addend: 0x0, symName: __ZNSt12_Vector_baseISt4pairIiiESaIS1_EE12_Vector_implC1Ev, symObjAddr: 0xA4C, symBinAddr: 0x1000011E4, symSize: 0x38 }
  - { offset: 0x207AE, size: 0x8, addend: 0x0, symName: __ZNSt4pairIiiEC1IRiS2_Lb1EEEOT_OT0_, symObjAddr: 0xA04, symBinAddr: 0x10000119C, symSize: 0x48 }
  - { offset: 0x207F8, size: 0x8, addend: 0x0, symName: __ZNSt6vectorISt4pairIiiESaIS1_EEixEm, symObjAddr: 0x9DC, symBinAddr: 0x100001174, symSize: 0x28 }
  - { offset: 0x2087B, size: 0x8, addend: 0x0, symName: __ZNSt4pairIiiEC1IiiLb1EEEOT_OT0_, symObjAddr: 0x994, symBinAddr: 0x10000112C, symSize: 0x48 }
  - { offset: 0x208C5, size: 0x8, addend: 0x0, symName: __ZNKSt6vectorISt4pairIiiESaIS1_EE4sizeEv, symObjAddr: 0x96C, symBinAddr: 0x100001104, symSize: 0x28 }
  - { offset: 0x208EF, size: 0x8, addend: 0x0, symName: __ZNSt6vectorIS_ISt4pairIiiESaIS1_EESaIS3_EEixEm, symObjAddr: 0x938, symBinAddr: 0x1000010D0, symSize: 0x34 }
  - { offset: 0x2094E, size: 0x8, addend: 0x0, symName: __ZNSt12_Vector_baseISt6vectorISt4pairIiiESaIS2_EESaIS4_EED2Ev, symObjAddr: 0x8DC, symBinAddr: 0x100001074, symSize: 0x5C }
  - { offset: 0x209AE, size: 0x8, addend: 0x0, symName: __ZNSt12_Vector_baseISt6vectorISt4pairIiiESaIS2_EESaIS4_EE12_Vector_implC1Ev, symObjAddr: 0x8A4, symBinAddr: 0x10000103C, symSize: 0x38 }
  - { offset: 0x20A1C, size: 0x8, addend: 0x0, symName: __ZSt7forwardIiEOT_RNSt16remove_referenceIS0_E4typeE, symObjAddr: 0x890, symBinAddr: 0x100001028, symSize: 0x14 }
  - { offset: 0x20A4E, size: 0x8, addend: 0x0, symName: __ZSt3maxImERKT_S2_S2_, symObjAddr: 0x858, symBinAddr: 0x100000FF0, symSize: 0x38 }
  - { offset: 0x20A99, size: 0x8, addend: 0x0, symName: _main, symObjAddr: 0x824, symBinAddr: 0x100000FBC, symSize: 0x34 }
  - { offset: 0x20AB8, size: 0x8, addend: 0x0, symName: __Z5solvev, symObjAddr: 0x670, symBinAddr: 0x100000E08, symSize: 0x1B4 }
  - { offset: 0x20B65, size: 0x8, addend: 0x0, symName: __ZNSt6vectorISt4pairIiiESaIS1_EEC1Ev, symObjAddr: 0x650, symBinAddr: 0x100000DE8, symSize: 0x20 }
  - { offset: 0x20BA5, size: 0x8, addend: 0x0, symName: __ZNSt12_Vector_baseISt4pairIiiESaIS1_EEC2Ev, symObjAddr: 0x630, symBinAddr: 0x100000DC8, symSize: 0x20 }
  - { offset: 0x20BF2, size: 0x8, addend: 0x0, symName: __ZNSt12_Vector_baseISt4pairIiiESaIS1_EE12_Vector_implD1Ev, symObjAddr: 0x604, symBinAddr: 0x100000D9C, symSize: 0x2C }
  - { offset: 0x20C42, size: 0x8, addend: 0x0, symName: __Z6maxdisii, symObjAddr: 0xE8, symBinAddr: 0x100000880, symSize: 0x51C }
  - { offset: 0x20D31, size: 0x8, addend: 0x0, symName: __ZNSt6vectorIS_ISt4pairIiiESaIS1_EESaIS3_EEC1Ev, symObjAddr: 0xC8, symBinAddr: 0x100000860, symSize: 0x20 }
  - { offset: 0x20D71, size: 0x8, addend: 0x0, symName: __ZNSt12_Vector_baseISt6vectorISt4pairIiiESaIS2_EESaIS4_EEC2Ev, symObjAddr: 0xA8, symBinAddr: 0x100000840, symSize: 0x20 }
  - { offset: 0x20DBE, size: 0x8, addend: 0x0, symName: __ZNSt12_Vector_baseISt6vectorISt4pairIiiESaIS2_EESaIS4_EE12_Vector_implD1Ev, symObjAddr: 0x7C, symBinAddr: 0x100000814, symSize: 0x2C }
  - { offset: 0x20E03, size: 0x8, addend: 0x0, symName: __ZSt3minImERKT_S2_S2_, symObjAddr: 0x44, symBinAddr: 0x1000007DC, symSize: 0x38 }
  - { offset: 0x20E4C, size: 0x8, addend: 0x0, symName: __ZdlPvS_, symObjAddr: 0x2C, symBinAddr: 0x1000007C4, symSize: 0x18 }
  - { offset: 0x20E82, size: 0x8, addend: 0x0, symName: __ZnwmPv, symObjAddr: 0x14, symBinAddr: 0x1000007AC, symSize: 0x18 }
  - { offset: 0x20EB4, size: 0x8, addend: 0x0, symName: __ZSt17__size_to_integerm, symObjAddr: 0x0, symBinAddr: 0x100000798, symSize: 0x14 }
...
