---
triple:          'arm64-apple-darwin'
binary-path:     '/Users/mengchengxi/Documents/code/C++C/competition/EXOUR'
relocations:
  - { offset: 0x2194A, size: 0x8, addend: 0x0, symName: __ZStL8__ioinit, symObjAddr: 0xB310C, symBinAddr: 0x100010000, symSize: 0x0 }
  - { offset: 0x21D6C, size: 0x8, addend: 0x0, symName: __ZL3INF, symObjAddr: 0x5BE8, symBinAddr: 0x100006F9C, symSize: 0x0 }
  - { offset: 0x21D83, size: 0x8, addend: 0x0, symName: __ZL3mod, symObjAddr: 0x5BEC, symBinAddr: 0x100006FA0, symSize: 0x0 }
  - { offset: 0x2257C, size: 0x8, addend: 0x0, symName: __GLOBAL__sub_I_EXOUR.cpp, symObjAddr: 0x5D80, symBinAddr: 0x100006368, symSize: 0x14 }
  - { offset: 0x22594, size: 0x8, addend: 0x0, symName: __Z41__static_initialization_and_destruction_0v, symObjAddr: 0x5D44, symBinAddr: 0x10000632C, symSize: 0x3C }
  - { offset: 0x225AC, size: 0x8, addend: 0x0, symName: __ZNSt10_Head_baseILm0EOiLb0EE7_M_headERS1_, symObjAddr: 0x5BCC, symBinAddr: 0x100006314, symSize: 0x18 }
  - { offset: 0x225EB, size: 0x8, addend: 0x0, symName: __ZNSt11_Tuple_implILm0EJOiEE7_M_headERS1_, symObjAddr: 0x5BB0, symBinAddr: 0x1000062F8, symSize: 0x1C }
  - { offset: 0x2262B, size: 0x8, addend: 0x0, symName: __ZSt12__get_helperILm0EOiJEERT0_RSt11_Tuple_implIXT_EJS1_DpT1_EE, symObjAddr: 0x5B94, symBinAddr: 0x1000062DC, symSize: 0x1C }
  - { offset: 0x22671, size: 0x8, addend: 0x0, symName: __ZN9__gnu_cxx5__ops14_Iter_comp_valIZ5solvevEUlRT_RT0_E0_EclINS_17__normal_iteratorIPSt4pairIiiESt6vectorISB_SaISB_EEEESB_EEbS2_S5_, symObjAddr: 0x5B54, symBinAddr: 0x10000629C, symSize: 0x40 }
  - { offset: 0x226C9, size: 0x8, addend: 0x0, symName: __ZNSt20__copy_move_backwardILb1ELb0ESt26random_access_iterator_tagE13__copy_move_bIPSt4pairIiiES5_EET0_T_S7_S6_, symObjAddr: 0x5AD8, symBinAddr: 0x100006220, symSize: 0x7C }
  - { offset: 0x22738, size: 0x8, addend: 0x0, symName: __ZSt4swapIiENSt9enable_ifIXsrSt6__and_IJSt6__not_ISt15__is_tuple_likeIT_EESt21is_move_constructibleIS4_ESt18is_move_assignableIS4_EEE5valueEvE4typeERS4_SE_, symObjAddr: 0x5A84, symBinAddr: 0x1000061CC, symSize: 0x54 }
  - { offset: 0x2278E, size: 0x8, addend: 0x0, symName: __ZN9__gnu_cxx5__ops14_Iter_comp_valIZ5solvevEUlRT_RT0_E_EclINS_17__normal_iteratorIPSt4pairIiiESt6vectorISB_SaISB_EEEESB_EEbS2_S5_, symObjAddr: 0x5A44, symBinAddr: 0x10000618C, symSize: 0x40 }
  - { offset: 0x22830, size: 0x8, addend: 0x0, symName: __ZNSt12_Vector_baseISt4pairIiiESaIS1_EE12_Vector_implC1Ev, symObjAddr: 0x5A0C, symBinAddr: 0x100006154, symSize: 0x38 }
  - { offset: 0x2289E, size: 0x8, addend: 0x0, symName: __ZSt7forwardIOiEOT_RNSt16remove_referenceIS1_E4typeE, symObjAddr: 0x59F8, symBinAddr: 0x100006140, symSize: 0x14 }
  - { offset: 0x228D0, size: 0x8, addend: 0x0, symName: __ZSt3getILm0EJOiEERNSt13tuple_elementIXT_ESt5tupleIJDpT0_EEE4typeERS5_, symObjAddr: 0x59DC, symBinAddr: 0x100006124, symSize: 0x1C }
  - { offset: 0x2290F, size: 0x8, addend: 0x0, symName: __ZSt9__fill_a1IPiiEN9__gnu_cxx11__enable_ifIXsrSt11__is_scalarIT0_E7__valueEvE6__typeET_S8_RKS4_, symObjAddr: 0x5984, symBinAddr: 0x1000060CC, symSize: 0x58 }
  - { offset: 0x22986, size: 0x8, addend: 0x0, symName: __ZNK9__gnu_cxx16__aligned_bufferISt4pairIKiSt6vectorIS1_IiiESaIS4_EEEE7_M_addrEv, symObjAddr: 0x5970, symBinAddr: 0x1000060B8, symSize: 0x14 }
  - { offset: 0x229B2, size: 0x8, addend: 0x0, symName: __ZSt11__push_heapIN9__gnu_cxx17__normal_iteratorIPSt4pairIiiESt6vectorIS3_SaIS3_EEEElS3_NS0_5__ops14_Iter_comp_valIZ5solvevEUlRT_RT0_E0_EEEvSB_SD_SD_T1_RT2_, symObjAddr: 0x5844, symBinAddr: 0x100005F8C, symSize: 0x12C }
  - { offset: 0x22A77, size: 0x8, addend: 0x0, symName: __ZN9__gnu_cxx5__ops14_Iter_comp_valIZ5solvevEUlRT_RT0_E0_EC1EONS0_15_Iter_comp_iterIS6_EE, symObjAddr: 0x5820, symBinAddr: 0x100005F68, symSize: 0x24 }
  - { offset: 0x22AA2, size: 0x8, addend: 0x0, symName: __ZSt23__copy_move_backward_a2ILb1EPSt4pairIiiES2_ET1_T0_S4_S3_, symObjAddr: 0x57F4, symBinAddr: 0x100005F3C, symSize: 0x2C }
  - { offset: 0x22B0E, size: 0x8, addend: 0x0, symName: __ZNSt4pairIiiE4swapERS0_, symObjAddr: 0x57B0, symBinAddr: 0x100005EF8, symSize: 0x44 }
  - { offset: 0x22B4B, size: 0x8, addend: 0x0, symName: __ZSt11__push_heapIN9__gnu_cxx17__normal_iteratorIPSt4pairIiiESt6vectorIS3_SaIS3_EEEElS3_NS0_5__ops14_Iter_comp_valIZ5solvevEUlRT_RT0_E_EEEvSB_SD_SD_T1_RT2_, symObjAddr: 0x5684, symBinAddr: 0x100005DCC, symSize: 0x12C }
  - { offset: 0x22C10, size: 0x8, addend: 0x0, symName: __ZN9__gnu_cxx5__ops14_Iter_comp_valIZ5solvevEUlRT_RT0_E_EC1EONS0_15_Iter_comp_iterIS6_EE, symObjAddr: 0x5660, symBinAddr: 0x100005DA8, symSize: 0x24 }
  - { offset: 0x22CEB, size: 0x8, addend: 0x0, symName: __ZNSt4pairIKiSt6vectorIS_IiiESaIS2_EEEC1IJOiEJLm0EEJEJEEERSt5tupleIJDpT_EERS8_IJDpT1_EESt12_Index_tupleIJXspT0_EEESH_IJXspT2_EEE, symObjAddr: 0x5604, symBinAddr: 0x100005D4C, symSize: 0x5C }
  - { offset: 0x22D78, size: 0x8, addend: 0x0, symName: __ZNSt6vectorISt4pairIiiESaIS1_EEC1Ev, symObjAddr: 0x55E4, symBinAddr: 0x100005D2C, symSize: 0x20 }
  - { offset: 0x22DB8, size: 0x8, addend: 0x0, symName: __ZNSt12_Vector_baseISt4pairIiiESaIS1_EEC2Ev, symObjAddr: 0x55C4, symBinAddr: 0x100005D0C, symSize: 0x20 }
  - { offset: 0x22DDE, size: 0x8, addend: 0x0, symName: __ZNKSt8__detail21_Hashtable_ebo_helperILi0ESt8equal_toIiELb1EE7_M_cgetEv, symObjAddr: 0x55B0, symBinAddr: 0x100005CF8, symSize: 0x14 }
  - { offset: 0x22E04, size: 0x8, addend: 0x0, symName: __ZSt8__fill_aIPiiEvT_S1_RKT0_, symObjAddr: 0x5580, symBinAddr: 0x100005CC8, symSize: 0x30 }
  - { offset: 0x22E66, size: 0x8, addend: 0x0, symName: __ZNK9__gnu_cxx16__aligned_bufferISt4pairIKiSt6vectorIS1_IiiESaIS4_EEEE6_M_ptrEv, symObjAddr: 0x5564, symBinAddr: 0x100005CAC, symSize: 0x1C }
  - { offset: 0x22E90, size: 0x8, addend: 0x0, symName: __ZNSt15__new_allocatorIPNSt8__detail15_Hash_node_baseEE8allocateEmPKv, symObjAddr: 0x54E8, symBinAddr: 0x100005C30, symSize: 0x7C }
  - { offset: 0x22F18, size: 0x8, addend: 0x0, symName: __ZSt11__addressofINSt8__detail10_Hash_nodeISt4pairIKiSt6vectorIS2_IiiESaIS5_EEELb0EEEEPT_RSA_, symObjAddr: 0x54D4, symBinAddr: 0x100005C1C, symSize: 0x14 }
  - { offset: 0x22F4A, size: 0x8, addend: 0x0, symName: __ZSt13__adjust_heapIN9__gnu_cxx17__normal_iteratorIPSt4pairIiiESt6vectorIS3_SaIS3_EEEElS3_NS0_5__ops15_Iter_comp_iterIZ5solvevEUlRT_RT0_E0_EEEvSB_SD_SD_T1_T2_, symObjAddr: 0x52FC, symBinAddr: 0x100005A44, symSize: 0x1D8 }
  - { offset: 0x2300C, size: 0x8, addend: 0x0, symName: __ZSt12__niter_wrapIN9__gnu_cxx17__normal_iteratorIPSt4pairIiiESt6vectorIS3_SaIS3_EEEES4_ET_S9_T0_, symObjAddr: 0x52B4, symBinAddr: 0x1000059FC, symSize: 0x48 }
  - { offset: 0x23059, size: 0x8, addend: 0x0, symName: __ZSt23__copy_move_backward_a1ILb1EPSt4pairIiiES2_ET1_T0_S4_S3_, symObjAddr: 0x5288, symBinAddr: 0x1000059D0, symSize: 0x2C }
  - { offset: 0x230C1, size: 0x8, addend: 0x0, symName: __ZSt12__niter_baseIPSt4pairIiiESt6vectorIS1_SaIS1_EEET_N9__gnu_cxx17__normal_iteratorIS6_T0_EE, symObjAddr: 0x5268, symBinAddr: 0x1000059B0, symSize: 0x20 }
  - { offset: 0x230FD, size: 0x8, addend: 0x0, symName: __ZSt4swapIiiENSt9enable_ifIXsrSt6__and_IJSt14__is_swappableIT_ES2_IT0_EEE5valueEvE4typeERSt4pairIS3_S5_ESC_, symObjAddr: 0x5240, symBinAddr: 0x100005988, symSize: 0x28 }
  - { offset: 0x2314A, size: 0x8, addend: 0x0, symName: __ZSt13__adjust_heapIN9__gnu_cxx17__normal_iteratorIPSt4pairIiiESt6vectorIS3_SaIS3_EEEElS3_NS0_5__ops15_Iter_comp_iterIZ5solvevEUlRT_RT0_E_EEEvSB_SD_SD_T1_T2_, symObjAddr: 0x5068, symBinAddr: 0x1000057B0, symSize: 0x1D8 }
  - { offset: 0x23212, size: 0x8, addend: 0x0, symName: __ZSt7forwardIRKSt4pairIiiEEOT_RNSt16remove_referenceIS4_E4typeE, symObjAddr: 0x5054, symBinAddr: 0x10000579C, symSize: 0x14 }
  - { offset: 0x23248, size: 0x8, addend: 0x0, symName: __ZNK9__gnu_cxx17__normal_iteratorIPKSt4pairIiiESt6vectorIS2_SaIS2_EEE4baseEv, symObjAddr: 0x5040, symBinAddr: 0x100005788, symSize: 0x14 }
  - { offset: 0x2326E, size: 0x8, addend: 0x0, symName: __ZSt19__relocate_object_aISt4pairIiiES1_SaIS1_EEvPT_PT0_RT1_, symObjAddr: 0x4F7C, symBinAddr: 0x1000056C4, symSize: 0xC4 }
  - { offset: 0x23405, size: 0x8, addend: 0x0, symName: __ZNSt4pairIKiSt6vectorIS_IiiESaIS2_EEEC1IJOiEJEEESt21piecewise_construct_tSt5tupleIJDpT_EES9_IJDpT0_EE, symObjAddr: 0x4F40, symBinAddr: 0x100005688, symSize: 0x3C }
  - { offset: 0x2347F, size: 0x8, addend: 0x0, symName: __ZNSt11_Tuple_implILm0EJOiEEC2EOS1_, symObjAddr: 0x4F18, symBinAddr: 0x100005660, symSize: 0x28 }
  - { offset: 0x234AE, size: 0x8, addend: 0x0, symName: __ZNKSt8equal_toIiEclERKiS2_, symObjAddr: 0x4EE4, symBinAddr: 0x10000562C, symSize: 0x34 }
  - { offset: 0x234FA, size: 0x8, addend: 0x0, symName: __ZNKSt8__detail15_Hashtable_baseIiSt4pairIKiSt6vectorIS1_IiiESaIS4_EEENS_10_Select1stESt8equal_toIiESt4hashIiENS_18_Mod_range_hashingENS_20_Default_ranged_hashENS_17_Hashtable_traitsILb0ELb0ELb1EEEE5_M_eqEv, symObjAddr: 0x4EC8, symBinAddr: 0x100005610, symSize: 0x1C }
  - { offset: 0x23520, size: 0x8, addend: 0x0, symName: __ZSt10__fill_n_aIPimiET_S1_T0_RKT1_St26random_access_iterator_tag, symObjAddr: 0x4E64, symBinAddr: 0x1000055AC, symSize: 0x64 }
  - { offset: 0x235AC, size: 0x8, addend: 0x0, symName: __ZSt7forwardIRKSt4pairIKiSt6vectorIS0_IiiESaIS3_EEEEOT_RNSt16remove_referenceIS9_E4typeE, symObjAddr: 0x4E50, symBinAddr: 0x100005598, symSize: 0x14 }
  - { offset: 0x235F4, size: 0x8, addend: 0x0, symName: __ZSt12__to_addressIPNSt8__detail15_Hash_node_baseEEPT_S4_, symObjAddr: 0x4E3C, symBinAddr: 0x100005584, symSize: 0x14 }
  - { offset: 0x2364A, size: 0x8, addend: 0x0, symName: __ZSt11__addressofIPNSt8__detail15_Hash_node_baseEEPT_RS3_, symObjAddr: 0x4E28, symBinAddr: 0x100005570, symSize: 0x14 }
  - { offset: 0x2367C, size: 0x8, addend: 0x0, symName: __ZSt9addressofINSt8__detail10_Hash_nodeISt4pairIKiSt6vectorIS2_IiiESaIS5_EEELb0EEEEPT_RSA_, symObjAddr: 0x4E0C, symBinAddr: 0x100005554, symSize: 0x1C }
  - { offset: 0x236B2, size: 0x8, addend: 0x0, symName: __ZN9__gnu_cxx5__ops14_Val_comp_iterIZ5solvevEUlRT_RT0_E0_EclISt4pairIiiENS_17__normal_iteratorIPSA_St6vectorISA_SaISA_EEEEEEbS3_S4_, symObjAddr: 0x4DCC, symBinAddr: 0x100005514, symSize: 0x40 }
  - { offset: 0x23731, size: 0x8, addend: 0x0, symName: __ZN9__gnu_cxx5__ops14_Val_comp_iterIZ5solvevEUlRT_RT0_E0_EC1EONS0_15_Iter_comp_iterIS6_EE, symObjAddr: 0x4DA8, symBinAddr: 0x1000054F0, symSize: 0x24 }
  - { offset: 0x23769, size: 0x8, addend: 0x0, symName: __ZSt4moveIRN9__gnu_cxx5__ops15_Iter_comp_iterIZ5solvevEUlRT_RT0_E0_EEEONSt16remove_referenceIS3_E4typeEOS3_, symObjAddr: 0x4D94, symBinAddr: 0x1000054DC, symSize: 0x14 }
  - { offset: 0x2379B, size: 0x8, addend: 0x0, symName: __ZSt10__pop_heapIN9__gnu_cxx17__normal_iteratorIPSt4pairIiiESt6vectorIS3_SaIS3_EEEENS0_5__ops15_Iter_comp_iterIZ5solvevEUlRT_RT0_E0_EEEvSB_SB_SB_SE_, symObjAddr: 0x4CFC, symBinAddr: 0x100005444, symSize: 0x98 }
  - { offset: 0x23831, size: 0x8, addend: 0x0, symName: __ZSt11__make_heapIN9__gnu_cxx17__normal_iteratorIPSt4pairIiiESt6vectorIS3_SaIS3_EEEENS0_5__ops15_Iter_comp_iterIZ5solvevEUlRT_RT0_E0_EEEvSB_SB_SE_, symObjAddr: 0x4C20, symBinAddr: 0x100005368, symSize: 0xDC }
  - { offset: 0x238EC, size: 0x8, addend: 0x0, symName: __ZN9__gnu_cxx5__ops14_Val_comp_iterIZ5solvevEUlRT_RT0_E_EclISt4pairIiiENS_17__normal_iteratorIPSA_St6vectorISA_SaISA_EEEEEEbS3_S4_, symObjAddr: 0x4BE0, symBinAddr: 0x100005328, symSize: 0x40 }
  - { offset: 0x2396B, size: 0x8, addend: 0x0, symName: __ZN9__gnu_cxx5__ops14_Val_comp_iterIZ5solvevEUlRT_RT0_E_EC1EONS0_15_Iter_comp_iterIS6_EE, symObjAddr: 0x4BBC, symBinAddr: 0x100005304, symSize: 0x24 }
  - { offset: 0x239A3, size: 0x8, addend: 0x0, symName: __ZSt4moveIRN9__gnu_cxx5__ops15_Iter_comp_iterIZ5solvevEUlRT_RT0_E_EEEONSt16remove_referenceIS3_E4typeEOS3_, symObjAddr: 0x4BA8, symBinAddr: 0x1000052F0, symSize: 0x14 }
  - { offset: 0x239D5, size: 0x8, addend: 0x0, symName: __ZSt22__copy_move_backward_aILb1EN9__gnu_cxx17__normal_iteratorIPSt4pairIiiESt6vectorIS3_SaIS3_EEEES8_ET1_T0_SA_S9_, symObjAddr: 0x4B48, symBinAddr: 0x100005290, symSize: 0x60 }
  - { offset: 0x23A3D, size: 0x8, addend: 0x0, symName: __ZSt12__miter_baseIN9__gnu_cxx17__normal_iteratorIPSt4pairIiiESt6vectorIS3_SaIS3_EEEEET_S9_, symObjAddr: 0x4B34, symBinAddr: 0x10000527C, symSize: 0x14 }
  - { offset: 0x23A70, size: 0x8, addend: 0x0, symName: __ZSt9iter_swapIN9__gnu_cxx17__normal_iteratorIPSt4pairIiiESt6vectorIS3_SaIS3_EEEES8_EvT_T0_, symObjAddr: 0x4AF0, symBinAddr: 0x100005238, symSize: 0x44 }
  - { offset: 0x23ABF, size: 0x8, addend: 0x0, symName: __ZN9__gnu_cxx17__normal_iteratorIPSt4pairIiiESt6vectorIS2_SaIS2_EEEmmEv, symObjAddr: 0x4AC8, symBinAddr: 0x100005210, symSize: 0x28 }
  - { offset: 0x23AE5, size: 0x8, addend: 0x0, symName: __ZSt10__pop_heapIN9__gnu_cxx17__normal_iteratorIPSt4pairIiiESt6vectorIS3_SaIS3_EEEENS0_5__ops15_Iter_comp_iterIZ5solvevEUlRT_RT0_E_EEEvSB_SB_SB_SE_, symObjAddr: 0x4A30, symBinAddr: 0x100005178, symSize: 0x98 }
  - { offset: 0x23B81, size: 0x8, addend: 0x0, symName: __ZN9__gnu_cxxltIPSt4pairIiiESt6vectorIS2_SaIS2_EEEEbRKNS_17__normal_iteratorIT_T0_EESC_, symObjAddr: 0x49EC, symBinAddr: 0x100005134, symSize: 0x44 }
  - { offset: 0x23BCE, size: 0x8, addend: 0x0, symName: __ZSt11__make_heapIN9__gnu_cxx17__normal_iteratorIPSt4pairIiiESt6vectorIS3_SaIS3_EEEENS0_5__ops15_Iter_comp_iterIZ5solvevEUlRT_RT0_E_EEEvSB_SB_SE_, symObjAddr: 0x4910, symBinAddr: 0x100005058, symSize: 0xDC }
  - { offset: 0x23C85, size: 0x8, addend: 0x0, symName: __ZSt10_ConstructISt4pairIiiEJRKS1_EEvPT_DpOT0_, symObjAddr: 0x48C8, symBinAddr: 0x100005010, symSize: 0x48 }
  - { offset: 0x23CD5, size: 0x8, addend: 0x0, symName: __ZNK9__gnu_cxx17__normal_iteratorIPKSt4pairIiiESt6vectorIS2_SaIS2_EEEdeEv, symObjAddr: 0x48B0, symBinAddr: 0x100004FF8, symSize: 0x18 }
  - { offset: 0x23CFB, size: 0x8, addend: 0x0, symName: __ZSt11__addressofISt4pairIiiEEPT_RS2_, symObjAddr: 0x489C, symBinAddr: 0x100004FE4, symSize: 0x14 }
  - { offset: 0x23D31, size: 0x8, addend: 0x0, symName: __ZN9__gnu_cxx17__normal_iteratorIPKSt4pairIiiESt6vectorIS2_SaIS2_EEEppEv, symObjAddr: 0x4874, symBinAddr: 0x100004FBC, symSize: 0x28 }
  - { offset: 0x23D5D, size: 0x8, addend: 0x0, symName: __ZN9__gnu_cxxneIPKSt4pairIiiESt6vectorIS2_SaIS2_EEEEbRKNS_17__normal_iteratorIT_T0_EESD_, symObjAddr: 0x4830, symBinAddr: 0x100004F78, symSize: 0x44 }
  - { offset: 0x23DAA, size: 0x8, addend: 0x0, symName: __ZSt14__relocate_a_1IPSt4pairIiiES2_SaIS1_EET0_T_S5_S4_RT1_, symObjAddr: 0x47AC, symBinAddr: 0x100004EF4, symSize: 0x84 }
  - { offset: 0x23E33, size: 0x8, addend: 0x0, symName: __ZSt12__niter_baseIPSt4pairIiiEET_S3_, symObjAddr: 0x4798, symBinAddr: 0x100004EE0, symSize: 0x14 }
  - { offset: 0x23E6A, size: 0x8, addend: 0x0, symName: __ZNSt15__new_allocatorISt4pairIiiEE8allocateEmPKv, symObjAddr: 0x471C, symBinAddr: 0x100004E64, symSize: 0x7C }
  - { offset: 0x23EF2, size: 0x8, addend: 0x0, symName: __ZNSt6vectorISt4pairIiiESaIS1_EE11_S_max_sizeERKS2_, symObjAddr: 0x46C8, symBinAddr: 0x100004E10, symSize: 0x54 }
  - { offset: 0x23FAD, size: 0x8, addend: 0x0, symName: __ZNSt15__new_allocatorINSt8__detail10_Hash_nodeISt4pairIKiSt6vectorIS2_IiiESaIS5_EEELb0EEEE10deallocateEPS9_m, symObjAddr: 0x468C, symBinAddr: 0x100004DD4, symSize: 0x3C }
  - { offset: 0x24079, size: 0x8, addend: 0x0, symName: __ZNSt5tupleIJOiEEC1EOS1_, symObjAddr: 0x4664, symBinAddr: 0x100004DAC, symSize: 0x28 }
  - { offset: 0x240A8, size: 0x8, addend: 0x0, symName: __ZNSt15__new_allocatorINSt8__detail10_Hash_nodeISt4pairIKiSt6vectorIS2_IiiESaIS5_EEELb0EEEE8allocateEmPKv, symObjAddr: 0x45D4, symBinAddr: 0x100004D1C, symSize: 0x90 }
  - { offset: 0x24164, size: 0x8, addend: 0x0, symName: __ZNSt10_Head_baseILm0EOiLb0EEC2IiEEOT_, symObjAddr: 0x45A4, symBinAddr: 0x100004CEC, symSize: 0x30 }
  - { offset: 0x2419C, size: 0x8, addend: 0x0, symName: __ZNKSt8__detail15_Hashtable_baseIiSt4pairIKiSt6vectorIS1_IiiESaIS4_EEENS_10_Select1stESt8equal_toIiESt4hashIiENS_18_Mod_range_hashingENS_20_Default_ranged_hashENS_17_Hashtable_traitsILb0ELb0ELb1EEEE13_M_key_equalsERS2_RKNS_16_Hash_node_valueIS7_Lb0EEE, symObjAddr: 0x4538, symBinAddr: 0x100004C80, symSize: 0x6C }
  - { offset: 0x2422C, size: 0x8, addend: 0x0, symName: __ZNSt8__detail15_Hashtable_baseIiSt4pairIKiSt6vectorIS1_IiiESaIS4_EEENS_10_Select1stESt8equal_toIiESt4hashIiENS_18_Mod_range_hashingENS_20_Default_ranged_hashENS_17_Hashtable_traitsILb0ELb0ELb1EEEE9_S_equalsEmRKNS_21_Hash_node_code_cacheILb0EEE, symObjAddr: 0x4520, symBinAddr: 0x100004C68, symSize: 0x18 }
  - { offset: 0x24257, size: 0x8, addend: 0x0, symName: __ZSt6fill_nIPimiET_S1_T0_RKT1_, symObjAddr: 0x44D8, symBinAddr: 0x100004C20, symSize: 0x48 }
  - { offset: 0x242DF, size: 0x8, addend: 0x0, symName: __ZSt10_ConstructIiJEEvPT_DpOT0_, symObjAddr: 0x44AC, symBinAddr: 0x100004BF4, symSize: 0x2C }
  - { offset: 0x2431B, size: 0x8, addend: 0x0, symName: __ZSt11__addressofIiEPT_RS0_, symObjAddr: 0x4498, symBinAddr: 0x100004BE0, symSize: 0x14 }
  - { offset: 0x24351, size: 0x8, addend: 0x0, symName: __ZNSt15__new_allocatorIiE8allocateEmPKv, symObjAddr: 0x441C, symBinAddr: 0x100004B64, symSize: 0x7C }
  - { offset: 0x243E9, size: 0x8, addend: 0x0, symName: __ZNKSt8__detail10_Select1stclIRKSt4pairIKiSt6vectorIS2_IiiESaIS5_EEEEEONS0_10__1st_typeIT_E4typeEOSC_, symObjAddr: 0x43FC, symBinAddr: 0x100004B44, symSize: 0x20 }
  - { offset: 0x24442, size: 0x8, addend: 0x0, symName: __ZNSt8__detail16_Hashtable_allocISaINS_10_Hash_nodeISt4pairIKiSt6vectorIS2_IiiESaIS5_EEELb0EEEEE19_M_allocate_bucketsEm, symObjAddr: 0x434C, symBinAddr: 0x100004A94, symSize: 0xB0 }
  - { offset: 0x24569, size: 0x8, addend: 0x0, symName: __ZNSt15__new_allocatorIPNSt8__detail15_Hash_node_baseEE10deallocateEPS2_m, symObjAddr: 0x431C, symBinAddr: 0x100004A64, symSize: 0x30 }
  - { offset: 0x245D7, size: 0x8, addend: 0x0, symName: __ZNSt15__new_allocatorIPNSt8__detail15_Hash_node_baseEED2Ev, symObjAddr: 0x4308, symBinAddr: 0x100004A50, symSize: 0x14 }
  - { offset: 0x2460F, size: 0x8, addend: 0x0, symName: __ZSt9addressofIPNSt8__detail15_Hash_node_baseEEPT_RS3_, symObjAddr: 0x42EC, symBinAddr: 0x100004A34, symSize: 0x1C }
  - { offset: 0x24641, size: 0x8, addend: 0x0, symName: __ZNSt19__ptr_traits_ptr_toIPNSt8__detail10_Hash_nodeISt4pairIKiSt6vectorIS2_IiiESaIS5_EEELb0EEES9_Lb0EE10pointer_toERS9_, symObjAddr: 0x42D0, symBinAddr: 0x100004A18, symSize: 0x1C }
  - { offset: 0x246C2, size: 0x8, addend: 0x0, symName: __ZNSt4pairIKiSt6vectorIS_IiiESaIS2_EEED1Ev, symObjAddr: 0x42AC, symBinAddr: 0x1000049F4, symSize: 0x24 }
  - { offset: 0x246E8, size: 0x8, addend: 0x0, symName: __ZNSt8__detail21_Hashtable_ebo_helperILi0ESaINS_10_Hash_nodeISt4pairIKiSt6vectorIS2_IiiESaIS5_EEELb0EEEELb1EE6_M_getEv, symObjAddr: 0x4298, symBinAddr: 0x1000049E0, symSize: 0x14 }
  - { offset: 0x2470E, size: 0x8, addend: 0x0, symName: __ZSt25__unguarded_linear_insertIN9__gnu_cxx17__normal_iteratorIPSt4pairIiiESt6vectorIS3_SaIS3_EEEENS0_5__ops14_Val_comp_iterIZ5solvevEUlRT_RT0_E0_EEEvSB_SD_, symObjAddr: 0x41E4, symBinAddr: 0x10000492C, symSize: 0xB4 }
  - { offset: 0x2477D, size: 0x8, addend: 0x0, symName: __ZN9__gnu_cxx5__ops15__val_comp_iterIZ5solvevEUlRT_RT0_E0_EENS0_14_Val_comp_iterIS2_EENS0_15_Iter_comp_iterIS2_EE, symObjAddr: 0x41AC, symBinAddr: 0x1000048F4, symSize: 0x38 }
  - { offset: 0x247B3, size: 0x8, addend: 0x0, symName: __ZN9__gnu_cxx5__ops15_Iter_comp_iterIZ5solvevEUlRT_RT0_E0_EclINS_17__normal_iteratorIPSt4pairIiiESt6vectorISB_SaISB_EEEESG_EEbS2_S4_, symObjAddr: 0x4160, symBinAddr: 0x1000048A8, symSize: 0x4C }
  - { offset: 0x24812, size: 0x8, addend: 0x0, symName: __Z5solvev, symObjAddr: 0x364, symBinAddr: 0x100000AAC, symSize: 0x3E0 }
  - { offset: 0x249AA, size: 0x8, addend: 0x0, symName: __ZZ5solvevENKUlRT_RT0_E_clISt4pairIiiES6_EEDaS0_S2_, symObjAddr: 0x3C64, symBinAddr: 0x1000043AC, symSize: 0x34 }
  - { offset: 0x24A7C, size: 0x8, addend: 0x0, symName: __ZZ5solvevENKUlRT_RT0_E0_clISt4pairIiiES6_EEDaS0_S2_, symObjAddr: 0x412C, symBinAddr: 0x100004874, symSize: 0x34 }
  - { offset: 0x24BDC, size: 0x8, addend: 0x0, symName: __ZSt21__unguarded_partitionIN9__gnu_cxx17__normal_iteratorIPSt4pairIiiESt6vectorIS3_SaIS3_EEEENS0_5__ops15_Iter_comp_iterIZ5solvevEUlRT_RT0_E0_EEESB_SB_SB_SB_SD_, symObjAddr: 0x4074, symBinAddr: 0x1000047BC, symSize: 0xB8 }
  - { offset: 0x24C4B, size: 0x8, addend: 0x0, symName: __ZSt22__move_median_to_firstIN9__gnu_cxx17__normal_iteratorIPSt4pairIiiESt6vectorIS3_SaIS3_EEEENS0_5__ops15_Iter_comp_iterIZ5solvevEUlRT_RT0_E0_EEEvSB_SB_SB_SB_SD_, symObjAddr: 0x3F64, symBinAddr: 0x1000046AC, symSize: 0x110 }
  - { offset: 0x24CC6, size: 0x8, addend: 0x0, symName: __ZSt11__sort_heapIN9__gnu_cxx17__normal_iteratorIPSt4pairIiiESt6vectorIS3_SaIS3_EEEENS0_5__ops15_Iter_comp_iterIZ5solvevEUlRT_RT0_E0_EEEvSB_SB_SE_, symObjAddr: 0x3EFC, symBinAddr: 0x100004644, symSize: 0x68 }
  - { offset: 0x24D24, size: 0x8, addend: 0x0, symName: __ZSt13__heap_selectIN9__gnu_cxx17__normal_iteratorIPSt4pairIiiESt6vectorIS3_SaIS3_EEEENS0_5__ops15_Iter_comp_iterIZ5solvevEUlRT_RT0_E0_EEEvSB_SB_SB_SD_, symObjAddr: 0x3E60, symBinAddr: 0x1000045A8, symSize: 0x9C }
  - { offset: 0x24DB7, size: 0x8, addend: 0x0, symName: __ZSt25__unguarded_linear_insertIN9__gnu_cxx17__normal_iteratorIPSt4pairIiiESt6vectorIS3_SaIS3_EEEENS0_5__ops14_Val_comp_iterIZ5solvevEUlRT_RT0_E_EEEvSB_SD_, symObjAddr: 0x3DAC, symBinAddr: 0x1000044F4, symSize: 0xB4 }
  - { offset: 0x24E26, size: 0x8, addend: 0x0, symName: __ZN9__gnu_cxx5__ops15__val_comp_iterIZ5solvevEUlRT_RT0_E_EENS0_14_Val_comp_iterIS2_EENS0_15_Iter_comp_iterIS2_EE, symObjAddr: 0x3D74, symBinAddr: 0x1000044BC, symSize: 0x38 }
  - { offset: 0x24E5C, size: 0x8, addend: 0x0, symName: __ZNSt4pairIiiEaSEOS0_, symObjAddr: 0x3D2C, symBinAddr: 0x100004474, symSize: 0x48 }
  - { offset: 0x24E93, size: 0x8, addend: 0x0, symName: __ZSt13move_backwardIN9__gnu_cxx17__normal_iteratorIPSt4pairIiiESt6vectorIS3_SaIS3_EEEES8_ET0_T_SA_S9_, symObjAddr: 0x3CE4, symBinAddr: 0x10000442C, symSize: 0x48 }
  - { offset: 0x24EF5, size: 0x8, addend: 0x0, symName: __ZN9__gnu_cxx5__ops15_Iter_comp_iterIZ5solvevEUlRT_RT0_E_EclINS_17__normal_iteratorIPSt4pairIiiESt6vectorISB_SaISB_EEEESG_EEbS2_S4_, symObjAddr: 0x3C98, symBinAddr: 0x1000043E0, symSize: 0x4C }
  - { offset: 0x24F58, size: 0x8, addend: 0x0, symName: __ZN9__gnu_cxx17__normal_iteratorIPSt4pairIiiESt6vectorIS2_SaIS2_EEEppEv, symObjAddr: 0x3C3C, symBinAddr: 0x100004384, symSize: 0x28 }
  - { offset: 0x24F7E, size: 0x8, addend: 0x0, symName: __ZN9__gnu_cxxeqIPSt4pairIiiESt6vectorIS2_SaIS2_EEEEbRKNS_17__normal_iteratorIT_T0_EESC_, symObjAddr: 0x3BF8, symBinAddr: 0x100004340, symSize: 0x44 }
  - { offset: 0x24FCB, size: 0x8, addend: 0x0, symName: __ZSt21__unguarded_partitionIN9__gnu_cxx17__normal_iteratorIPSt4pairIiiESt6vectorIS3_SaIS3_EEEENS0_5__ops15_Iter_comp_iterIZ5solvevEUlRT_RT0_E_EEESB_SB_SB_SB_SD_, symObjAddr: 0x3B40, symBinAddr: 0x100004288, symSize: 0xB8 }
  - { offset: 0x2503A, size: 0x8, addend: 0x0, symName: __ZSt22__move_median_to_firstIN9__gnu_cxx17__normal_iteratorIPSt4pairIiiESt6vectorIS3_SaIS3_EEEENS0_5__ops15_Iter_comp_iterIZ5solvevEUlRT_RT0_E_EEEvSB_SB_SB_SB_SD_, symObjAddr: 0x3A30, symBinAddr: 0x100004178, symSize: 0x110 }
  - { offset: 0x250B5, size: 0x8, addend: 0x0, symName: __ZSt11__sort_heapIN9__gnu_cxx17__normal_iteratorIPSt4pairIiiESt6vectorIS3_SaIS3_EEEENS0_5__ops15_Iter_comp_iterIZ5solvevEUlRT_RT0_E_EEEvSB_SB_SE_, symObjAddr: 0x39C8, symBinAddr: 0x100004110, symSize: 0x68 }
  - { offset: 0x25113, size: 0x8, addend: 0x0, symName: __ZSt13__heap_selectIN9__gnu_cxx17__normal_iteratorIPSt4pairIiiESt6vectorIS3_SaIS3_EEEENS0_5__ops15_Iter_comp_iterIZ5solvevEUlRT_RT0_E_EEEvSB_SB_SB_SD_, symObjAddr: 0x392C, symBinAddr: 0x100004074, symSize: 0x9C }
  - { offset: 0x251A6, size: 0x8, addend: 0x0, symName: __ZSt16__do_uninit_copyIN9__gnu_cxx17__normal_iteratorIPKSt4pairIiiESt6vectorIS3_SaIS3_EEEEPS3_ET0_T_SC_SB_, symObjAddr: 0x38AC, symBinAddr: 0x100003FF4, symSize: 0x80 }
  - { offset: 0x25234, size: 0x8, addend: 0x0, symName: __ZN9__gnu_cxx16__aligned_bufferISt4pairIKiSt6vectorIS1_IiiESaIS4_EEEE7_M_addrEv, symObjAddr: 0x3898, symBinAddr: 0x100003FE0, symSize: 0x14 }
  - { offset: 0x2525A, size: 0x8, addend: 0x0, symName: __ZSt12__relocate_aIPSt4pairIiiES2_SaIS1_EET0_T_S5_S4_RT1_, symObjAddr: 0x383C, symBinAddr: 0x100003F84, symSize: 0x5C }
  - { offset: 0x252D6, size: 0x8, addend: 0x0, symName: __ZNSt15__new_allocatorISt4pairIiiEE10deallocateEPS1_m, symObjAddr: 0x380C, symBinAddr: 0x100003F54, symSize: 0x30 }
  - { offset: 0x25344, size: 0x8, addend: 0x0, symName: __ZNKSt6vectorISt4pairIiiESaIS1_EE8max_sizeEv, symObjAddr: 0x37EC, symBinAddr: 0x100003F34, symSize: 0x20 }
  - { offset: 0x253F4, size: 0x8, addend: 0x0, symName: __ZSt12__to_addressINSt8__detail10_Hash_nodeISt4pairIKiSt6vectorIS2_IiiESaIS5_EEELb0EEEEPT_SB_, symObjAddr: 0x37D8, symBinAddr: 0x100003F20, symSize: 0x14 }
  - { offset: 0x2547F, size: 0x8, addend: 0x0, symName: __ZNSt11_Tuple_implILm0EJOiEEC2IiEEOT_, symObjAddr: 0x379C, symBinAddr: 0x100003EE4, symSize: 0x3C }
  - { offset: 0x254B7, size: 0x8, addend: 0x0, symName: __ZNKSt10_HashtableIiSt4pairIKiSt6vectorIS0_IiiESaIS3_EEESaIS6_ENSt8__detail10_Select1stESt8equal_toIiESt4hashIiENS8_18_Mod_range_hashingENS8_20_Default_ranged_hashENS8_20_Prime_rehash_policyENS8_17_Hashtable_traitsILb0ELb0ELb1EEEE15_M_bucket_indexERKNS8_16_Hash_node_valueIS6_Lb0EEE, symObjAddr: 0x376C, symBinAddr: 0x100003EB4, symSize: 0x30 }
  - { offset: 0x254F2, size: 0x8, addend: 0x0, symName: __ZNKSt8__detail15_Hashtable_baseIiSt4pairIKiSt6vectorIS1_IiiESaIS4_EEENS_10_Select1stESt8equal_toIiESt4hashIiENS_18_Mod_range_hashingENS_20_Default_ranged_hashENS_17_Hashtable_traitsILb0ELb0ELb1EEEE9_M_equalsERS2_mRKNS_16_Hash_node_valueIS7_Lb0EEE, symObjAddr: 0x370C, symBinAddr: 0x100003E54, symSize: 0x60 }
  - { offset: 0x2554F, size: 0x8, addend: 0x0, symName: __ZNKSt8__detail21_Hashtable_ebo_helperILi1ESt4hashIiELb1EE7_M_cgetEv, symObjAddr: 0x36F8, symBinAddr: 0x100003E40, symSize: 0x14 }
  - { offset: 0x25575, size: 0x8, addend: 0x0, symName: __ZNSt27__uninitialized_default_n_1ILb1EE18__uninit_default_nIPimEET_S3_T0_, symObjAddr: 0x3694, symBinAddr: 0x100003DDC, symSize: 0x64 }
  - { offset: 0x255F1, size: 0x8, addend: 0x0, symName: __ZNSt15__new_allocatorIiE10deallocateEPim, symObjAddr: 0x3664, symBinAddr: 0x100003DAC, symSize: 0x30 }
  - { offset: 0x25675, size: 0x8, addend: 0x0, symName: __ZNKSt8__detail15_Hash_code_baseIiSt4pairIKiSt6vectorIS1_IiiESaIS4_EEENS_10_Select1stESt4hashIiENS_18_Mod_range_hashingENS_20_Default_ranged_hashELb0EE15_M_bucket_indexERKNS_16_Hash_node_valueIS7_Lb0EEEm, symObjAddr: 0x3600, symBinAddr: 0x100003D48, symSize: 0x64 }
  - { offset: 0x25709, size: 0x8, addend: 0x0, symName: __ZNSt10_HashtableIiSt4pairIKiSt6vectorIS0_IiiESaIS3_EEESaIS6_ENSt8__detail10_Select1stESt8equal_toIiESt4hashIiENS8_18_Mod_range_hashingENS8_20_Default_ranged_hashENS8_20_Prime_rehash_policyENS8_17_Hashtable_traitsILb0ELb0ELb1EEEE19_M_allocate_bucketsEm, symObjAddr: 0x35A8, symBinAddr: 0x100003CF0, symSize: 0x58 }
  - { offset: 0x25740, size: 0x8, addend: 0x0, symName: __ZSt11__addressofINSt8__detail20_Prime_rehash_policyEEPT_RS2_, symObjAddr: 0x3594, symBinAddr: 0x100003CDC, symSize: 0x14 }
  - { offset: 0x257E8, size: 0x8, addend: 0x0, symName: __ZNSt19__ptr_traits_ptr_toIPPNSt8__detail15_Hash_node_baseES2_Lb0EE10pointer_toERS2_, symObjAddr: 0x3578, symBinAddr: 0x100003CC0, symSize: 0x1C }
  - { offset: 0x25815, size: 0x8, addend: 0x0, symName: __ZNSt8__detail16_Hashtable_allocISaINS_10_Hash_nodeISt4pairIKiSt6vectorIS2_IiiESaIS5_EEELb0EEEEE22_M_deallocate_node_ptrEPS9_, symObjAddr: 0x3520, symBinAddr: 0x100003C68, symSize: 0x58 }
  - { offset: 0x258C4, size: 0x8, addend: 0x0, symName: __ZNSt8__detail16_Hashtable_allocISaINS_10_Hash_nodeISt4pairIKiSt6vectorIS2_IiiESaIS5_EEELb0EEEEE17_M_node_allocatorEv, symObjAddr: 0x3504, symBinAddr: 0x100003C4C, symSize: 0x1C }
  - { offset: 0x258EA, size: 0x8, addend: 0x0, symName: __ZSt26__unguarded_insertion_sortIN9__gnu_cxx17__normal_iteratorIPSt4pairIiiESt6vectorIS3_SaIS3_EEEENS0_5__ops15_Iter_comp_iterIZ5solvevEUlRT_RT0_E0_EEEvSB_SB_SD_, symObjAddr: 0x3498, symBinAddr: 0x100003BE0, symSize: 0x6C }
  - { offset: 0x2596C, size: 0x8, addend: 0x0, symName: __ZSt16__insertion_sortIN9__gnu_cxx17__normal_iteratorIPSt4pairIiiESt6vectorIS3_SaIS3_EEEENS0_5__ops15_Iter_comp_iterIZ5solvevEUlRT_RT0_E0_EEEvSB_SB_SD_, symObjAddr: 0x33A0, symBinAddr: 0x100003AE8, symSize: 0xF8 }
  - { offset: 0x25A12, size: 0x8, addend: 0x0, symName: __ZSt27__unguarded_partition_pivotIN9__gnu_cxx17__normal_iteratorIPSt4pairIiiESt6vectorIS3_SaIS3_EEEENS0_5__ops15_Iter_comp_iterIZ5solvevEUlRT_RT0_E0_EEESB_SB_SB_SD_, symObjAddr: 0x3304, symBinAddr: 0x100003A4C, symSize: 0x9C }
  - { offset: 0x25A81, size: 0x8, addend: 0x0, symName: __ZSt14__partial_sortIN9__gnu_cxx17__normal_iteratorIPSt4pairIiiESt6vectorIS3_SaIS3_EEEENS0_5__ops15_Iter_comp_iterIZ5solvevEUlRT_RT0_E0_EEEvSB_SB_SB_SD_, symObjAddr: 0x32B8, symBinAddr: 0x100003A00, symSize: 0x4C }
  - { offset: 0x25AF0, size: 0x8, addend: 0x0, symName: __ZSt26__unguarded_insertion_sortIN9__gnu_cxx17__normal_iteratorIPSt4pairIiiESt6vectorIS3_SaIS3_EEEENS0_5__ops15_Iter_comp_iterIZ5solvevEUlRT_RT0_E_EEEvSB_SB_SD_, symObjAddr: 0x324C, symBinAddr: 0x100003994, symSize: 0x6C }
  - { offset: 0x25B72, size: 0x8, addend: 0x0, symName: __ZSt16__insertion_sortIN9__gnu_cxx17__normal_iteratorIPSt4pairIiiESt6vectorIS3_SaIS3_EEEENS0_5__ops15_Iter_comp_iterIZ5solvevEUlRT_RT0_E_EEEvSB_SB_SD_, symObjAddr: 0x3154, symBinAddr: 0x10000389C, symSize: 0xF8 }
  - { offset: 0x25C1C, size: 0x8, addend: 0x0, symName: __ZNK9__gnu_cxx17__normal_iteratorIPSt4pairIiiESt6vectorIS2_SaIS2_EEEplEl, symObjAddr: 0x3114, symBinAddr: 0x10000385C, symSize: 0x40 }
  - { offset: 0x25C53, size: 0x8, addend: 0x0, symName: __ZSt27__unguarded_partition_pivotIN9__gnu_cxx17__normal_iteratorIPSt4pairIiiESt6vectorIS3_SaIS3_EEEENS0_5__ops15_Iter_comp_iterIZ5solvevEUlRT_RT0_E_EEESB_SB_SB_SD_, symObjAddr: 0x3078, symBinAddr: 0x1000037C0, symSize: 0x9C }
  - { offset: 0x25CC2, size: 0x8, addend: 0x0, symName: __ZSt14__partial_sortIN9__gnu_cxx17__normal_iteratorIPSt4pairIiiESt6vectorIS3_SaIS3_EEEENS0_5__ops15_Iter_comp_iterIZ5solvevEUlRT_RT0_E_EEEvSB_SB_SB_SD_, symObjAddr: 0x302C, symBinAddr: 0x100003774, symSize: 0x4C }
  - { offset: 0x25D35, size: 0x8, addend: 0x0, symName: __ZNK9__gnu_cxx17__normal_iteratorIPSt4pairIiiESt6vectorIS2_SaIS2_EEE4baseEv, symObjAddr: 0x3018, symBinAddr: 0x100003760, symSize: 0x14 }
  - { offset: 0x25D5B, size: 0x8, addend: 0x0, symName: __ZNSt12_Destroy_auxILb1EE9__destroyIPSt4pairIiiEEEvT_S5_, symObjAddr: 0x3000, symBinAddr: 0x100003748, symSize: 0x18 }
  - { offset: 0x25D8F, size: 0x8, addend: 0x0, symName: __ZNSt20__uninitialized_copyILb0EE13__uninit_copyIN9__gnu_cxx17__normal_iteratorIPKSt4pairIiiESt6vectorIS5_SaIS5_EEEEPS5_EET0_T_SE_SD_, symObjAddr: 0x2FD4, symBinAddr: 0x10000371C, symSize: 0x2C }
  - { offset: 0x25E08, size: 0x8, addend: 0x0, symName: __ZNSt12_Vector_baseISt4pairIiiESaIS1_EE17_Vector_impl_dataC2Ev, symObjAddr: 0x2FA8, symBinAddr: 0x1000036F0, symSize: 0x2C }
  - { offset: 0x25E51, size: 0x8, addend: 0x0, symName: __ZN9__gnu_cxx16__aligned_bufferISt4pairIKiSt6vectorIS1_IiiESaIS4_EEEE6_M_ptrEv, symObjAddr: 0x2F8C, symBinAddr: 0x1000036D4, symSize: 0x1C }
  - { offset: 0x25EA3, size: 0x8, addend: 0x0, symName: __ZNSt8__detail19_Node_iterator_baseISt4pairIKiSt6vectorIS1_IiiESaIS4_EEELb0EEC2EPNS_10_Hash_nodeIS7_Lb0EEE, symObjAddr: 0x2F68, symBinAddr: 0x1000036B0, symSize: 0x24 }
  - { offset: 0x25ED2, size: 0x8, addend: 0x0, symName: __ZNK9__gnu_cxx17__normal_iteratorIPSt4pairIiiESt6vectorIS2_SaIS2_EEEdeEv, symObjAddr: 0x2F50, symBinAddr: 0x100003698, symSize: 0x18 }
  - { offset: 0x25EFC, size: 0x8, addend: 0x0, symName: __ZNK9__gnu_cxx17__normal_iteratorIPSt4pairIiiESt6vectorIS2_SaIS2_EEEmiEl, symObjAddr: 0x2F0C, symBinAddr: 0x100003654, symSize: 0x44 }
  - { offset: 0x25F33, size: 0x8, addend: 0x0, symName: __ZNSt6vectorISt4pairIiiESaIS1_EE11_S_relocateEPS1_S4_S4_RS2_, symObjAddr: 0x2ED8, symBinAddr: 0x100003620, symSize: 0x34 }
  - { offset: 0x25F90, size: 0x8, addend: 0x0, symName: __ZSt12__to_addressISt4pairIiiEEPT_S3_, symObjAddr: 0x2EC4, symBinAddr: 0x10000360C, symSize: 0x14 }
  - { offset: 0x25FF8, size: 0x8, addend: 0x0, symName: __ZNSt12_Vector_baseISt4pairIiiESaIS1_EE11_M_allocateEm, symObjAddr: 0x2E74, symBinAddr: 0x1000035BC, symSize: 0x50 }
  - { offset: 0x26060, size: 0x8, addend: 0x0, symName: __ZNKSt6vectorISt4pairIiiESaIS1_EE12_M_check_lenEmPKc, symObjAddr: 0x2DA4, symBinAddr: 0x1000034EC, symSize: 0xD0 }
  - { offset: 0x260FF, size: 0x8, addend: 0x0, symName: __ZNSt10_HashtableIiSt4pairIKiSt6vectorIS0_IiiESaIS3_EEESaIS6_ENSt8__detail10_Select1stESt8equal_toIiESt4hashIiENS8_18_Mod_range_hashingENS8_20_Default_ranged_hashENS8_20_Prime_rehash_policyENS8_17_Hashtable_traitsILb0ELb0ELb1EEEE22_M_insert_bucket_beginEmPNS8_10_Hash_nodeIS6_Lb0EEE, symObjAddr: 0x2C98, symBinAddr: 0x1000033E0, symSize: 0x10C }
  - { offset: 0x2614B, size: 0x8, addend: 0x0, symName: __ZNKSt8__detail15_Hash_code_baseIiSt4pairIKiSt6vectorIS1_IiiESaIS4_EEENS_10_Select1stESt4hashIiENS_18_Mod_range_hashingENS_20_Default_ranged_hashELb0EE13_M_store_codeERNS_21_Hash_node_code_cacheILb0EEEm, symObjAddr: 0x2C7C, symBinAddr: 0x1000033C4, symSize: 0x1C }
  - { offset: 0x26187, size: 0x8, addend: 0x0, symName: __ZNSt8__detail16_Hashtable_allocISaINS_10_Hash_nodeISt4pairIKiSt6vectorIS2_IiiESaIS5_EEELb0EEEEE16_M_allocate_nodeIJRKSt21piecewise_construct_tSt5tupleIJOiEESG_IJEEEEEPS9_DpOT_, symObjAddr: 0x2A90, symBinAddr: 0x1000031D8, symSize: 0x1EC }
  - { offset: 0x26357, size: 0x8, addend: 0x0, symName: __ZNSt8__detail10_Hash_nodeISt4pairIKiSt6vectorIS1_IiiESaIS4_EEELb0EEC1Ev, symObjAddr: 0x2A70, symBinAddr: 0x1000031B8, symSize: 0x20 }
  - { offset: 0x2637F, size: 0x8, addend: 0x0, symName: __ZSt7forwardISt5tupleIJEEEOT_RNSt16remove_referenceIS2_E4typeE, symObjAddr: 0x2A5C, symBinAddr: 0x1000031A4, symSize: 0x14 }
  - { offset: 0x263B7, size: 0x8, addend: 0x0, symName: __ZSt7forwardISt5tupleIJOiEEEOT_RNSt16remove_referenceIS3_E4typeE, symObjAddr: 0x2A48, symBinAddr: 0x100003190, symSize: 0x14 }
  - { offset: 0x263EF, size: 0x8, addend: 0x0, symName: __ZSt7forwardIRKSt21piecewise_construct_tEOT_RNSt16remove_referenceIS3_E4typeE, symObjAddr: 0x2A34, symBinAddr: 0x10000317C, symSize: 0x14 }
  - { offset: 0x26460, size: 0x8, addend: 0x0, symName: __ZNSt5tupleIJOiEEC1IJiELb1ELb1EEEDpOT_, symObjAddr: 0x29F8, symBinAddr: 0x100003140, symSize: 0x3C }
  - { offset: 0x264AB, size: 0x8, addend: 0x0, symName: __ZNKSt10_HashtableIiSt4pairIKiSt6vectorIS0_IiiESaIS3_EEESaIS6_ENSt8__detail10_Select1stESt8equal_toIiESt4hashIiENS8_18_Mod_range_hashingENS8_20_Default_ranged_hashENS8_20_Prime_rehash_policyENS8_17_Hashtable_traitsILb0ELb0ELb1EEEE19_M_find_before_nodeEmRS1_m, symObjAddr: 0x28FC, symBinAddr: 0x100003044, symSize: 0xFC }
  - { offset: 0x2653D, size: 0x8, addend: 0x0, symName: __ZNKSt8__detail15_Hash_code_baseIiSt4pairIKiSt6vectorIS1_IiiESaIS4_EEENS_10_Select1stESt4hashIiENS_18_Mod_range_hashingENS_20_Default_ranged_hashELb0EE15_M_bucket_indexEmm, symObjAddr: 0x28D0, symBinAddr: 0x100003018, symSize: 0x2C }
  - { offset: 0x26589, size: 0x8, addend: 0x0, symName: __ZNKSt8__detail15_Hash_code_baseIiSt4pairIKiSt6vectorIS1_IiiESaIS4_EEENS_10_Select1stESt4hashIiENS_18_Mod_range_hashingENS_20_Default_ranged_hashELb0EE7_M_hashEv, symObjAddr: 0x28B4, symBinAddr: 0x100002FFC, symSize: 0x1C }
  - { offset: 0x265AF, size: 0x8, addend: 0x0, symName: __ZNSt12_Destroy_auxILb1EE9__destroyIPiEEvT_S3_, symObjAddr: 0x289C, symBinAddr: 0x100002FE4, symSize: 0x18 }
  - { offset: 0x265E3, size: 0x8, addend: 0x0, symName: __ZSt25__uninitialized_default_nIPimET_S1_T0_, symObjAddr: 0x2870, symBinAddr: 0x100002FB8, symSize: 0x2C }
  - { offset: 0x26677, size: 0x8, addend: 0x0, symName: __ZNSt12_Vector_baseIiSaIiEE11_M_allocateEm, symObjAddr: 0x2820, symBinAddr: 0x100002F68, symSize: 0x50 }
  - { offset: 0x266F9, size: 0x8, addend: 0x0, symName: __ZNSt12_Vector_baseIiSaIiEE17_Vector_impl_dataC2Ev, symObjAddr: 0x27F4, symBinAddr: 0x100002F3C, symSize: 0x2C }
  - { offset: 0x26750, size: 0x8, addend: 0x0, symName: __ZNSt10_HashtableIiSt4pairIKiSt6vectorIS0_IiiESaIS3_EEESaIS6_ENSt8__detail10_Select1stESt8equal_toIiESt4hashIiENS8_18_Mod_range_hashingENS8_20_Default_ranged_hashENS8_20_Prime_rehash_policyENS8_17_Hashtable_traitsILb0ELb0ELb1EEEE9_M_rehashEmSt17integral_constantIbLb1EE, symObjAddr: 0x2688, symBinAddr: 0x100002DD0, symSize: 0x16C }
  - { offset: 0x26821, size: 0x8, addend: 0x0, symName: __ZNSt8__detail17_RehashStateGuardINS_20_Prime_rehash_policyEED1Ev, symObjAddr: 0x2644, symBinAddr: 0x100002D8C, symSize: 0x44 }
  - { offset: 0x2686F, size: 0x8, addend: 0x0, symName: __ZNSt8__detail17_RehashStateGuardINS_20_Prime_rehash_policyEEC1ERS1_, symObjAddr: 0x2600, symBinAddr: 0x100002D48, symSize: 0x44 }
  - { offset: 0x2689E, size: 0x8, addend: 0x0, symName: __ZNSt8__detail16_Hashtable_allocISaINS_10_Hash_nodeISt4pairIKiSt6vectorIS2_IiiESaIS5_EEELb0EEEEE21_M_deallocate_bucketsEPPNS_15_Hash_node_baseEm, symObjAddr: 0x2588, symBinAddr: 0x100002CD0, symSize: 0x78 }
  - { offset: 0x269AE, size: 0x8, addend: 0x0, symName: __ZNKSt10_HashtableIiSt4pairIKiSt6vectorIS0_IiiESaIS3_EEESaIS6_ENSt8__detail10_Select1stESt8equal_toIiESt4hashIiENS8_18_Mod_range_hashingENS8_20_Default_ranged_hashENS8_20_Prime_rehash_policyENS8_17_Hashtable_traitsILb0ELb0ELb1EEEE21_M_uses_single_bucketEPPNS8_15_Hash_node_baseE, symObjAddr: 0x254C, symBinAddr: 0x100002C94, symSize: 0x3C }
  - { offset: 0x269E9, size: 0x8, addend: 0x0, symName: __ZNSt8__detail16_Hashtable_allocISaINS_10_Hash_nodeISt4pairIKiSt6vectorIS2_IiiESaIS5_EEELb0EEEEE18_M_deallocate_nodeEPS9_, symObjAddr: 0x24D0, symBinAddr: 0x100002C18, symSize: 0x7C }
  - { offset: 0x26A9E, size: 0x8, addend: 0x0, symName: __ZSt13__countl_zeroImEiT_, symObjAddr: 0x247C, symBinAddr: 0x100002BC4, symSize: 0x54 }
  - { offset: 0x26B33, size: 0x8, addend: 0x0, symName: __ZSt22__final_insertion_sortIN9__gnu_cxx17__normal_iteratorIPSt4pairIiiESt6vectorIS3_SaIS3_EEEENS0_5__ops15_Iter_comp_iterIZ5solvevEUlRT_RT0_E0_EEEvSB_SB_SD_, symObjAddr: 0x23F0, symBinAddr: 0x100002B38, symSize: 0x8C }
  - { offset: 0x26B91, size: 0x8, addend: 0x0, symName: __ZSt16__introsort_loopIN9__gnu_cxx17__normal_iteratorIPSt4pairIiiESt6vectorIS3_SaIS3_EEEElNS0_5__ops15_Iter_comp_iterIZ5solvevEUlRT_RT0_E0_EEEvSB_SB_SD_T1_, symObjAddr: 0x2348, symBinAddr: 0x100002A90, symSize: 0xA8 }
  - { offset: 0x26C54, size: 0x8, addend: 0x0, symName: __ZN9__gnu_cxx5__ops15_Iter_comp_iterIZ5solvevEUlRT_RT0_E0_EC1ES6_, symObjAddr: 0x2324, symBinAddr: 0x100002A6C, symSize: 0x24 }
  - { offset: 0x26C86, size: 0x8, addend: 0x0, symName: __ZSt4moveIRZ5solvevEUlRT_RT0_E0_EONSt16remove_referenceIS0_E4typeEOS0_, symObjAddr: 0x2310, symBinAddr: 0x100002A58, symSize: 0x14 }
  - { offset: 0x26CB8, size: 0x8, addend: 0x0, symName: __ZSt22__final_insertion_sortIN9__gnu_cxx17__normal_iteratorIPSt4pairIiiESt6vectorIS3_SaIS3_EEEENS0_5__ops15_Iter_comp_iterIZ5solvevEUlRT_RT0_E_EEEvSB_SB_SD_, symObjAddr: 0x2284, symBinAddr: 0x1000029CC, symSize: 0x8C }
  - { offset: 0x26D16, size: 0x8, addend: 0x0, symName: __ZSt16__introsort_loopIN9__gnu_cxx17__normal_iteratorIPSt4pairIiiESt6vectorIS3_SaIS3_EEEElNS0_5__ops15_Iter_comp_iterIZ5solvevEUlRT_RT0_E_EEEvSB_SB_SD_T1_, symObjAddr: 0x21DC, symBinAddr: 0x100002924, symSize: 0xA8 }
  - { offset: 0x26DB2, size: 0x8, addend: 0x0, symName: __ZSt4__lgIlET_S0_, symObjAddr: 0x21B8, symBinAddr: 0x100002900, symSize: 0x24 }
  - { offset: 0x26DE5, size: 0x8, addend: 0x0, symName: __ZN9__gnu_cxxmiIPSt4pairIiiESt6vectorIS2_SaIS2_EEEENS_17__normal_iteratorIT_T0_E15difference_typeERKSA_SD_, symObjAddr: 0x2178, symBinAddr: 0x1000028C0, symSize: 0x40 }
  - { offset: 0x26E32, size: 0x8, addend: 0x0, symName: __ZN9__gnu_cxxneIPSt4pairIiiESt6vectorIS2_SaIS2_EEEEbRKNS_17__normal_iteratorIT_T0_EESC_, symObjAddr: 0x2134, symBinAddr: 0x10000287C, symSize: 0x44 }
  - { offset: 0x26EA6, size: 0x8, addend: 0x0, symName: __ZN9__gnu_cxx5__ops15_Iter_comp_iterIZ5solvevEUlRT_RT0_E_EC1ES6_, symObjAddr: 0x2110, symBinAddr: 0x100002858, symSize: 0x24 }
  - { offset: 0x26ED8, size: 0x8, addend: 0x0, symName: __ZSt4moveIRZ5solvevEUlRT_RT0_E_EONSt16remove_referenceIS0_E4typeEOS0_, symObjAddr: 0x20FC, symBinAddr: 0x100002844, symSize: 0x14 }
  - { offset: 0x26F0A, size: 0x8, addend: 0x0, symName: __ZSt8_DestroyIPSt4pairIiiEEvT_S3_, symObjAddr: 0x20D4, symBinAddr: 0x10000281C, symSize: 0x28 }
  - { offset: 0x26F4C, size: 0x8, addend: 0x0, symName: __ZSt18uninitialized_copyIN9__gnu_cxx17__normal_iteratorIPKSt4pairIiiESt6vectorIS3_SaIS3_EEEEPS3_ET0_T_SC_SB_, symObjAddr: 0x20A0, symBinAddr: 0x1000027E8, symSize: 0x34 }
  - { offset: 0x26FF3, size: 0x8, addend: 0x0, symName: __ZN9__gnu_cxx17__normal_iteratorIPKSt4pairIiiESt6vectorIS2_SaIS2_EEEC1ERKS4_, symObjAddr: 0x2078, symBinAddr: 0x1000027C0, symSize: 0x28 }
  - { offset: 0x27022, size: 0x8, addend: 0x0, symName: __ZNSt12_Vector_baseISt4pairIiiESaIS1_EE13_M_deallocateEPS1_m, symObjAddr: 0x2020, symBinAddr: 0x100002768, symSize: 0x58 }
  - { offset: 0x270A4, size: 0x8, addend: 0x0, symName: __ZNSt12_Vector_baseISt4pairIiiESaIS1_EE17_M_create_storageEm, symObjAddr: 0x1FC0, symBinAddr: 0x100002708, symSize: 0x60 }
  - { offset: 0x27106, size: 0x8, addend: 0x0, symName: __ZNSt12_Vector_baseISt4pairIiiESaIS1_EE12_Vector_implC1ERKS2_, symObjAddr: 0x1F74, symBinAddr: 0x1000026BC, symSize: 0x4C }
  - { offset: 0x271B1, size: 0x8, addend: 0x0, symName: __ZNSt15__new_allocatorISt4pairIiiEED2Ev, symObjAddr: 0x1F60, symBinAddr: 0x1000026A8, symSize: 0x14 }
  - { offset: 0x27203, size: 0x8, addend: 0x0, symName: __ZNKSt8__detail10_Hash_nodeISt4pairIKiSt6vectorIS1_IiiESaIS4_EEELb0EE7_M_nextEv, symObjAddr: 0x1F48, symBinAddr: 0x100002690, symSize: 0x18 }
  - { offset: 0x27255, size: 0x8, addend: 0x0, symName: __ZNSt8__detail14_Node_iteratorISt4pairIKiSt6vectorIS1_IiiESaIS4_EEELb0ELb0EEC1EPNS_10_Hash_nodeIS7_Lb0EEE, symObjAddr: 0x1F20, symBinAddr: 0x100002668, symSize: 0x28 }
  - { offset: 0x27284, size: 0x8, addend: 0x0, symName: __ZNSt6vectorISt4pairIiiESaIS1_EE4backEv, symObjAddr: 0x1EE8, symBinAddr: 0x100002630, symSize: 0x38 }
  - { offset: 0x272AE, size: 0x8, addend: 0x0, symName: __ZNSt6vectorISt4pairIiiESaIS1_EE17_M_realloc_appendIJS1_EEEvDpOT_, symObjAddr: 0x1D2C, symBinAddr: 0x100002474, symSize: 0x1BC }
  - { offset: 0x27433, size: 0x8, addend: 0x0, symName: __ZZNSt6vectorISt4pairIiiESaIS1_EE17_M_realloc_appendIJS1_EEEvDpOT_EN6_GuardC1EPS1_mRS2_, symObjAddr: 0x1C88, symBinAddr: 0x1000023D0, symSize: 0x44 }
  - { offset: 0x27478, size: 0x8, addend: 0x0, symName: __ZZNSt6vectorISt4pairIiiESaIS1_EE17_M_realloc_appendIJS1_EEEvDpOT_EN6_GuardD1Ev, symObjAddr: 0x1CCC, symBinAddr: 0x100002414, symSize: 0x60 }
  - { offset: 0x275B1, size: 0x8, addend: 0x0, symName: __ZSt7forwardISt4pairIiiEEOT_RNSt16remove_referenceIS2_E4typeE, symObjAddr: 0x1C74, symBinAddr: 0x1000023BC, symSize: 0x14 }
  - { offset: 0x275E7, size: 0x8, addend: 0x0, symName: __ZNKSt8__detail14_Node_iteratorISt4pairIKiSt6vectorIS1_IiiESaIS4_EEELb0ELb0EEptEv, symObjAddr: 0x1C44, symBinAddr: 0x10000238C, symSize: 0x30 }
  - { offset: 0x27635, size: 0x8, addend: 0x0, symName: __ZNSt10_HashtableIiSt4pairIKiSt6vectorIS0_IiiESaIS3_EEESaIS6_ENSt8__detail10_Select1stESt8equal_toIiESt4hashIiENS8_18_Mod_range_hashingENS8_20_Default_ranged_hashENS8_20_Prime_rehash_policyENS8_17_Hashtable_traitsILb0ELb0ELb1EEEE21_M_insert_unique_nodeEmmPNS8_10_Hash_nodeIS6_Lb0EEEm, symObjAddr: 0x1B34, symBinAddr: 0x10000227C, symSize: 0x110 }
  - { offset: 0x276EC, size: 0x8, addend: 0x0, symName: __ZNSt10_HashtableIiSt4pairIKiSt6vectorIS0_IiiESaIS3_EEESaIS6_ENSt8__detail10_Select1stESt8equal_toIiESt4hashIiENS8_18_Mod_range_hashingENS8_20_Default_ranged_hashENS8_20_Prime_rehash_policyENS8_17_Hashtable_traitsILb0ELb0ELb1EEEE12_Scoped_nodeD1Ev, symObjAddr: 0x1AF0, symBinAddr: 0x100002238, symSize: 0x44 }
  - { offset: 0x27765, size: 0x8, addend: 0x0, symName: __ZNSt10_HashtableIiSt4pairIKiSt6vectorIS0_IiiESaIS3_EEESaIS6_ENSt8__detail10_Select1stESt8equal_toIiESt4hashIiENS8_18_Mod_range_hashingENS8_20_Default_ranged_hashENS8_20_Prime_rehash_policyENS8_17_Hashtable_traitsILb0ELb0ELb1EEEE12_Scoped_nodeC1IJRKSt21piecewise_construct_tSt5tupleIJOiEESP_IJEEEEEPNS8_16_Hashtable_allocISaINS8_10_Hash_nodeIS6_Lb0EEEEEEDpOT_, symObjAddr: 0x1A68, symBinAddr: 0x1000021B0, symSize: 0x88 }
  - { offset: 0x277C7, size: 0x8, addend: 0x0, symName: __ZSt16forward_as_tupleIJiEESt5tupleIJDpOT_EES3_, symObjAddr: 0x1A30, symBinAddr: 0x100002178, symSize: 0x38 }
  - { offset: 0x277FF, size: 0x8, addend: 0x0, symName: __ZNKSt10_HashtableIiSt4pairIKiSt6vectorIS0_IiiESaIS3_EEESaIS6_ENSt8__detail10_Select1stESt8equal_toIiESt4hashIiENS8_18_Mod_range_hashingENS8_20_Default_ranged_hashENS8_20_Prime_rehash_policyENS8_17_Hashtable_traitsILb0ELb0ELb1EEEE12_M_find_nodeEmRS1_m, symObjAddr: 0x19DC, symBinAddr: 0x100002124, symSize: 0x54 }
  - { offset: 0x2786D, size: 0x8, addend: 0x0, symName: __ZNKSt10_HashtableIiSt4pairIKiSt6vectorIS0_IiiESaIS3_EEESaIS6_ENSt8__detail10_Select1stESt8equal_toIiESt4hashIiENS8_18_Mod_range_hashingENS8_20_Default_ranged_hashENS8_20_Prime_rehash_policyENS8_17_Hashtable_traitsILb0ELb0ELb1EEEE15_M_bucket_indexEm, symObjAddr: 0x19AC, symBinAddr: 0x1000020F4, symSize: 0x30 }
  - { offset: 0x278A8, size: 0x8, addend: 0x0, symName: __ZNKSt8__detail15_Hash_code_baseIiSt4pairIKiSt6vectorIS1_IiiESaIS4_EEENS_10_Select1stESt4hashIiENS_18_Mod_range_hashingENS_20_Default_ranged_hashELb0EE12_M_hash_codeERS2_, symObjAddr: 0x1974, symBinAddr: 0x1000020BC, symSize: 0x38 }
  - { offset: 0x278DF, size: 0x8, addend: 0x0, symName: __ZSt8_DestroyIPiEvT_S1_, symObjAddr: 0x194C, symBinAddr: 0x100002094, symSize: 0x28 }
  - { offset: 0x27921, size: 0x8, addend: 0x0, symName: __ZSt27__uninitialized_default_n_aIPimiET_S1_T0_RSaIT1_E, symObjAddr: 0x1924, symBinAddr: 0x10000206C, symSize: 0x28 }
  - { offset: 0x27984, size: 0x8, addend: 0x0, symName: __ZNSt12_Vector_baseIiSaIiEE13_M_deallocateEPim, symObjAddr: 0x18CC, symBinAddr: 0x100002014, symSize: 0x58 }
  - { offset: 0x27A06, size: 0x8, addend: 0x0, symName: __ZNSt12_Vector_baseIiSaIiEE17_M_create_storageEm, symObjAddr: 0x186C, symBinAddr: 0x100001FB4, symSize: 0x60 }
  - { offset: 0x27A68, size: 0x8, addend: 0x0, symName: __ZNSt12_Vector_baseIiSaIiEE12_Vector_implC1ERKS0_, symObjAddr: 0x1820, symBinAddr: 0x100001F68, symSize: 0x4C }
  - { offset: 0x27B0E, size: 0x8, addend: 0x0, symName: __ZNSt6vectorIiSaIiEE11_S_max_sizeERKS0_, symObjAddr: 0x17CC, symBinAddr: 0x100001F14, symSize: 0x54 }
  - { offset: 0x27BC9, size: 0x8, addend: 0x0, symName: __ZNSt10_HashtableIiSt4pairIKiSt6vectorIS0_IiiESaIS3_EEESaIS6_ENSt8__detail10_Select1stESt8equal_toIiESt4hashIiENS8_18_Mod_range_hashingENS8_20_Default_ranged_hashENS8_20_Prime_rehash_policyENS8_17_Hashtable_traitsILb0ELb0ELb1EEEE6rehashEm, symObjAddr: 0x1704, symBinAddr: 0x100001E4C, symSize: 0xC8 }
  - { offset: 0x27C15, size: 0x8, addend: 0x0, symName: __ZNKSt10_HashtableIiSt4pairIKiSt6vectorIS0_IiiESaIS3_EEESaIS6_ENSt8__detail10_Select1stESt8equal_toIiESt4hashIiENS8_18_Mod_range_hashingENS8_20_Default_ranged_hashENS8_20_Prime_rehash_policyENS8_17_Hashtable_traitsILb0ELb0ELb1EEEE15__rehash_policyEv, symObjAddr: 0x16EC, symBinAddr: 0x100001E34, symSize: 0x18 }
  - { offset: 0x27C3F, size: 0x8, addend: 0x0, symName: __ZNSt10_HashtableIiSt4pairIKiSt6vectorIS0_IiiESaIS3_EEESaIS6_ENSt8__detail10_Select1stESt8equal_toIiESt4hashIiENS8_18_Mod_range_hashingENS8_20_Default_ranged_hashENS8_20_Prime_rehash_policyENS8_17_Hashtable_traitsILb0ELb0ELb1EEEE21_M_deallocate_bucketsEPPNS8_15_Hash_node_baseEm, symObjAddr: 0x16A0, symBinAddr: 0x100001DE8, symSize: 0x4C }
  - { offset: 0x27C8B, size: 0x8, addend: 0x0, symName: __ZNSt8__detail16_Hashtable_allocISaINS_10_Hash_nodeISt4pairIKiSt6vectorIS2_IiiESaIS5_EEELb0EEEEE19_M_deallocate_nodesEPS9_, symObjAddr: 0x1650, symBinAddr: 0x100001D98, symSize: 0x50 }
  - { offset: 0x27CEA, size: 0x8, addend: 0x0, symName: __ZNKSt10_HashtableIiSt4pairIKiSt6vectorIS0_IiiESaIS3_EEESaIS6_ENSt8__detail10_Select1stESt8equal_toIiESt4hashIiENS8_18_Mod_range_hashingENS8_20_Default_ranged_hashENS8_20_Prime_rehash_policyENS8_17_Hashtable_traitsILb0ELb0ELb1EEEE8_M_beginEv, symObjAddr: 0x1638, symBinAddr: 0x100001D80, symSize: 0x18 }
  - { offset: 0x27D26, size: 0x8, addend: 0x0, symName: __ZSt11__bit_widthImEiT_, symObjAddr: 0x1608, symBinAddr: 0x100001D50, symSize: 0x30 }
  - { offset: 0x27D6A, size: 0x8, addend: 0x0, symName: __ZSt6__sortIN9__gnu_cxx17__normal_iteratorIPSt4pairIiiESt6vectorIS3_SaIS3_EEEENS0_5__ops15_Iter_comp_iterIZ5solvevEUlRT_RT0_E0_EEEvSB_SB_SD_, symObjAddr: 0x1598, symBinAddr: 0x100001CE0, symSize: 0x70 }
  - { offset: 0x27DC8, size: 0x8, addend: 0x0, symName: __ZN9__gnu_cxx5__ops16__iter_comp_iterIZ5solvevEUlRT_RT0_E0_EENS0_15_Iter_comp_iterIS2_EES2_, symObjAddr: 0x1560, symBinAddr: 0x100001CA8, symSize: 0x38 }
  - { offset: 0x27DFA, size: 0x8, addend: 0x0, symName: __ZSt6__sortIN9__gnu_cxx17__normal_iteratorIPSt4pairIiiESt6vectorIS3_SaIS3_EEEENS0_5__ops15_Iter_comp_iterIZ5solvevEUlRT_RT0_E_EEEvSB_SB_SD_, symObjAddr: 0x14F0, symBinAddr: 0x100001C38, symSize: 0x70 }
  - { offset: 0x27E58, size: 0x8, addend: 0x0, symName: __ZN9__gnu_cxx5__ops16__iter_comp_iterIZ5solvevEUlRT_RT0_E_EENS0_15_Iter_comp_iterIS2_EES2_, symObjAddr: 0x14B8, symBinAddr: 0x100001C00, symSize: 0x38 }
  - { offset: 0x27EB6, size: 0x8, addend: 0x0, symName: __ZN9__gnu_cxx17__normal_iteratorIPSt4pairIiiESt6vectorIS2_SaIS2_EEEC1ERKS3_, symObjAddr: 0x1490, symBinAddr: 0x100001BD8, symSize: 0x28 }
  - { offset: 0x27F1C, size: 0x8, addend: 0x0, symName: __ZSt22__uninitialized_copy_aIN9__gnu_cxx17__normal_iteratorIPKSt4pairIiiESt6vectorIS3_SaIS3_EEEEPS3_S3_ET0_T_SC_SB_RSaIT1_E, symObjAddr: 0x1460, symBinAddr: 0x100001BA8, symSize: 0x30 }
  - { offset: 0x27F90, size: 0x8, addend: 0x0, symName: __ZNSt12_Vector_baseISt4pairIiiESaIS1_EE19_M_get_Tp_allocatorEv, symObjAddr: 0x144C, symBinAddr: 0x100001B94, symSize: 0x14 }
  - { offset: 0x27FBA, size: 0x8, addend: 0x0, symName: __ZNKSt6vectorISt4pairIiiESaIS1_EE3endEv, symObjAddr: 0x1424, symBinAddr: 0x100001B6C, symSize: 0x28 }
  - { offset: 0x27FE4, size: 0x8, addend: 0x0, symName: __ZNKSt6vectorISt4pairIiiESaIS1_EE5beginEv, symObjAddr: 0x1400, symBinAddr: 0x100001B48, symSize: 0x24 }
  - { offset: 0x28032, size: 0x8, addend: 0x0, symName: __ZNSt12_Vector_baseISt4pairIiiESaIS1_EED2Ev, symObjAddr: 0x13B0, symBinAddr: 0x100001AF8, symSize: 0x50 }
  - { offset: 0x2808E, size: 0x8, addend: 0x0, symName: __ZNSt12_Vector_baseISt4pairIiiESaIS1_EEC2EmRKS2_, symObjAddr: 0x135C, symBinAddr: 0x100001AA4, symSize: 0x54 }
  - { offset: 0x280ED, size: 0x8, addend: 0x0, symName: __ZNSt12_Vector_baseISt4pairIiiESaIS1_EE12_Vector_implD1Ev, symObjAddr: 0x1330, symBinAddr: 0x100001A78, symSize: 0x2C }
  - { offset: 0x2816B, size: 0x8, addend: 0x0, symName: __ZNKSt12_Vector_baseISt4pairIiiESaIS1_EE19_M_get_Tp_allocatorEv, symObjAddr: 0x131C, symBinAddr: 0x100001A64, symSize: 0x14 }
  - { offset: 0x281AB, size: 0x8, addend: 0x0, symName: __ZNSt8__detail19_Node_iterator_baseISt4pairIKiSt6vectorIS1_IiiESaIS4_EEELb0EE7_M_incrEv, symObjAddr: 0x12EC, symBinAddr: 0x100001A34, symSize: 0x30 }
  - { offset: 0x281D5, size: 0x8, addend: 0x0, symName: __ZNSt10_HashtableIiSt4pairIKiSt6vectorIS0_IiiESaIS3_EEESaIS6_ENSt8__detail10_Select1stESt8equal_toIiESt4hashIiENS8_18_Mod_range_hashingENS8_20_Default_ranged_hashENS8_20_Prime_rehash_policyENS8_17_Hashtable_traitsILb0ELb0ELb1EEEE3endEv, symObjAddr: 0x12C8, symBinAddr: 0x100001A10, symSize: 0x24 }
  - { offset: 0x281FF, size: 0x8, addend: 0x0, symName: __ZNSt10_HashtableIiSt4pairIKiSt6vectorIS0_IiiESaIS3_EEESaIS6_ENSt8__detail10_Select1stESt8equal_toIiESt4hashIiENS8_18_Mod_range_hashingENS8_20_Default_ranged_hashENS8_20_Prime_rehash_policyENS8_17_Hashtable_traitsILb0ELb0ELb1EEEE5beginEv, symObjAddr: 0x129C, symBinAddr: 0x1000019E4, symSize: 0x2C }
  - { offset: 0x28229, size: 0x8, addend: 0x0, symName: __ZNSt6vectorISt4pairIiiESaIS1_EE12emplace_backIJS1_EEERS1_DpOT_, symObjAddr: 0x11C4, symBinAddr: 0x10000190C, symSize: 0xD8 }
  - { offset: 0x282DB, size: 0x8, addend: 0x0, symName: __ZSt4moveIRSt4pairIiiEEONSt16remove_referenceIT_E4typeEOS4_, symObjAddr: 0x11B0, symBinAddr: 0x1000018F8, symSize: 0x14 }
  - { offset: 0x28313, size: 0x8, addend: 0x0, symName: __ZSt7forwardIRiEOT_RNSt16remove_referenceIS1_E4typeE, symObjAddr: 0x119C, symBinAddr: 0x1000018E4, symSize: 0x14 }
  - { offset: 0x28349, size: 0x8, addend: 0x0, symName: __ZNSt8__detail9_Map_baseIiSt4pairIKiSt6vectorIS1_IiiESaIS4_EEESaIS7_ENS_10_Select1stESt8equal_toIiESt4hashIiENS_18_Mod_range_hashingENS_20_Default_ranged_hashENS_20_Prime_rehash_policyENS_17_Hashtable_traitsILb0ELb0ELb1EEELb1EEixEOi, symObjAddr: 0x106C, symBinAddr: 0x1000017B4, symSize: 0x130 }
  - { offset: 0x28453, size: 0x8, addend: 0x0, symName: __ZSt4moveIRiEONSt16remove_referenceIT_E4typeEOS2_, symObjAddr: 0x1058, symBinAddr: 0x1000017A0, symSize: 0x14 }
  - { offset: 0x284C4, size: 0x8, addend: 0x0, symName: __ZNSt12_Vector_baseIiSaIiEE19_M_get_Tp_allocatorEv, symObjAddr: 0x1044, symBinAddr: 0x10000178C, symSize: 0x14 }
  - { offset: 0x284EE, size: 0x8, addend: 0x0, symName: __ZNSt6vectorIiSaIiEE21_M_default_initializeEm, symObjAddr: 0xFF4, symBinAddr: 0x10000173C, symSize: 0x50 }
  - { offset: 0x2854D, size: 0x8, addend: 0x0, symName: __ZNSt12_Vector_baseIiSaIiEED2Ev, symObjAddr: 0xFA4, symBinAddr: 0x1000016EC, symSize: 0x50 }
  - { offset: 0x285A9, size: 0x8, addend: 0x0, symName: __ZNSt12_Vector_baseIiSaIiEEC2EmRKS0_, symObjAddr: 0xF50, symBinAddr: 0x100001698, symSize: 0x54 }
  - { offset: 0x28608, size: 0x8, addend: 0x0, symName: __ZNSt12_Vector_baseIiSaIiEE12_Vector_implD1Ev, symObjAddr: 0xF24, symBinAddr: 0x10000166C, symSize: 0x2C }
  - { offset: 0x2864D, size: 0x8, addend: 0x0, symName: __ZNSt6vectorIiSaIiEE17_S_check_init_lenEmRKS0_, symObjAddr: 0xEA0, symBinAddr: 0x1000015E8, symSize: 0x84 }
  - { offset: 0x28727, size: 0x8, addend: 0x0, symName: __ZNSt15__new_allocatorIiED2Ev, symObjAddr: 0xE8C, symBinAddr: 0x1000015D4, symSize: 0x14 }
  - { offset: 0x28763, size: 0x8, addend: 0x0, symName: __ZNSt8__detail12_Rehash_baseIiSt4pairIKiSt6vectorIS1_IiiESaIS4_EEESaIS7_ENS_10_Select1stESt8equal_toIiESt4hashIiENS_18_Mod_range_hashingENS_20_Default_ranged_hashENS_20_Prime_rehash_policyENS_17_Hashtable_traitsILb0ELb0ELb1EEESt17integral_constantIbLb1EEE7reserveEm, symObjAddr: 0xE40, symBinAddr: 0x100001588, symSize: 0x4C }
  - { offset: 0x287B6, size: 0x8, addend: 0x0, symName: __ZNSt10_HashtableIiSt4pairIKiSt6vectorIS0_IiiESaIS3_EEESaIS6_ENSt8__detail10_Select1stESt8equal_toIiESt4hashIiENS8_18_Mod_range_hashingENS8_20_Default_ranged_hashENS8_20_Prime_rehash_policyENS8_17_Hashtable_traitsILb0ELb0ELb1EEEE21_M_deallocate_bucketsEv, symObjAddr: 0xE0C, symBinAddr: 0x100001554, symSize: 0x34 }
  - { offset: 0x287E0, size: 0x8, addend: 0x0, symName: __ZNSt10_HashtableIiSt4pairIKiSt6vectorIS0_IiiESaIS3_EEESaIS6_ENSt8__detail10_Select1stESt8equal_toIiESt4hashIiENS8_18_Mod_range_hashingENS8_20_Default_ranged_hashENS8_20_Prime_rehash_policyENS8_17_Hashtable_traitsILb0ELb0ELb1EEEE5clearEv, symObjAddr: 0xDAC, symBinAddr: 0x1000014F4, symSize: 0x60 }
  - { offset: 0x2882E, size: 0x8, addend: 0x0, symName: __ZNSt15__new_allocatorINSt8__detail10_Hash_nodeISt4pairIKiSt6vectorIS2_IiiESaIS5_EEELb0EEEED2Ev, symObjAddr: 0xD98, symBinAddr: 0x1000014E0, symSize: 0x14 }
  - { offset: 0x2886A, size: 0x8, addend: 0x0, symName: __ZNSt6vectorISt4pairIiiESaIS1_EEixEm, symObjAddr: 0xD70, symBinAddr: 0x1000014B8, symSize: 0x28 }
  - { offset: 0x288A5, size: 0x8, addend: 0x0, symName: __ZNKSt6vectorISt4pairIiiESaIS1_EE4sizeEv, symObjAddr: 0xD48, symBinAddr: 0x100001490, symSize: 0x28 }
  - { offset: 0x288CB, size: 0x8, addend: 0x0, symName: __ZSt4sortIN9__gnu_cxx17__normal_iteratorIPSt4pairIiiESt6vectorIS3_SaIS3_EEEEZ5solvevEUlRT_RT0_E0_EvS9_S9_SB_, symObjAddr: 0xD08, symBinAddr: 0x100001450, symSize: 0x40 }
  - { offset: 0x28929, size: 0x8, addend: 0x0, symName: __ZSt4sortIN9__gnu_cxx17__normal_iteratorIPSt4pairIiiESt6vectorIS3_SaIS3_EEEEZ5solvevEUlRT_RT0_E_EvS9_S9_SB_, symObjAddr: 0xCC8, symBinAddr: 0x100001410, symSize: 0x40 }
  - { offset: 0x2898B, size: 0x8, addend: 0x0, symName: __ZNSt6vectorISt4pairIiiESaIS1_EE3endEv, symObjAddr: 0xCA0, symBinAddr: 0x1000013E8, symSize: 0x28 }
  - { offset: 0x289B5, size: 0x8, addend: 0x0, symName: __ZNSt6vectorISt4pairIiiESaIS1_EE5beginEv, symObjAddr: 0xC7C, symBinAddr: 0x1000013C4, symSize: 0x24 }
  - { offset: 0x28A03, size: 0x8, addend: 0x0, symName: __ZNSt6vectorISt4pairIiiESaIS1_EED1Ev, symObjAddr: 0xC20, symBinAddr: 0x100001368, symSize: 0x5C }
  - { offset: 0x28A87, size: 0x8, addend: 0x0, symName: __ZNSt6vectorISt4pairIiiESaIS1_EEC1ERKS3_, symObjAddr: 0xB0C, symBinAddr: 0x100001254, symSize: 0x114 }
  - { offset: 0x28B9A, size: 0x8, addend: 0x0, symName: __ZNKSt8__detail14_Node_iteratorISt4pairIKiSt6vectorIS1_IiiESaIS4_EEELb0ELb0EEdeEv, symObjAddr: 0xAD0, symBinAddr: 0x100001218, symSize: 0x3C }
  - { offset: 0x28C0C, size: 0x8, addend: 0x0, symName: __ZNSt8__detail14_Node_iteratorISt4pairIKiSt6vectorIS1_IiiESaIS4_EEELb0ELb0EEppEv, symObjAddr: 0xAB0, symBinAddr: 0x1000011F8, symSize: 0x20 }
  - { offset: 0x28C38, size: 0x8, addend: 0x0, symName: __ZNSt8__detailneERKNS_19_Node_iterator_baseISt4pairIKiSt6vectorIS1_IiiESaIS4_EEELb0EEESA_, symObjAddr: 0xA80, symBinAddr: 0x1000011C8, symSize: 0x30 }
  - { offset: 0x28C77, size: 0x8, addend: 0x0, symName: __ZNSt13unordered_mapIiSt6vectorISt4pairIiiESaIS2_EESt4hashIiESt8equal_toIiESaIS1_IKiS4_EEE3endEv, symObjAddr: 0xA64, symBinAddr: 0x1000011AC, symSize: 0x1C }
  - { offset: 0x28CA1, size: 0x8, addend: 0x0, symName: __ZNSt13unordered_mapIiSt6vectorISt4pairIiiESaIS2_EESt4hashIiESt8equal_toIiESaIS1_IKiS4_EEE5beginEv, symObjAddr: 0xA48, symBinAddr: 0x100001190, symSize: 0x1C }
  - { offset: 0x28CCB, size: 0x8, addend: 0x0, symName: __ZNSt6vectorISt4pairIiiESaIS1_EE9push_backEOS1_, symObjAddr: 0xA18, symBinAddr: 0x100001160, symSize: 0x30 }
  - { offset: 0x28D4E, size: 0x8, addend: 0x0, symName: __ZNSt4pairIiiEC1IRiS2_Lb1EEEOT_OT0_, symObjAddr: 0x9D0, symBinAddr: 0x100001118, symSize: 0x48 }
  - { offset: 0x28D98, size: 0x8, addend: 0x0, symName: __ZNSt13unordered_mapIiSt6vectorISt4pairIiiESaIS2_EESt4hashIiESt8equal_toIiESaIS1_IKiS4_EEEixEOi, symObjAddr: 0x998, symBinAddr: 0x1000010E0, symSize: 0x38 }
  - { offset: 0x28DD3, size: 0x8, addend: 0x0, symName: __ZNSt6vectorIiSaIiEEixEm, symObjAddr: 0x970, symBinAddr: 0x1000010B8, symSize: 0x28 }
  - { offset: 0x28E32, size: 0x8, addend: 0x0, symName: __ZNSt6vectorIiSaIiEED1Ev, symObjAddr: 0x914, symBinAddr: 0x10000105C, symSize: 0x5C }
  - { offset: 0x28EC4, size: 0x8, addend: 0x0, symName: __ZNSt6vectorIiSaIiEEC1EmRKS0_, symObjAddr: 0x8AC, symBinAddr: 0x100000FF4, symSize: 0x68 }
  - { offset: 0x28F32, size: 0x8, addend: 0x0, symName: __ZNSt13unordered_mapIiSt6vectorISt4pairIiiESaIS2_EESt4hashIiESt8equal_toIiESaIS1_IKiS4_EEE7reserveEm, symObjAddr: 0x884, symBinAddr: 0x100000FCC, symSize: 0x28 }
  - { offset: 0x28F91, size: 0x8, addend: 0x0, symName: __ZNSt10_HashtableIiSt4pairIKiSt6vectorIS0_IiiESaIS3_EEESaIS6_ENSt8__detail10_Select1stESt8equal_toIiESt4hashIiENS8_18_Mod_range_hashingENS8_20_Default_ranged_hashENS8_20_Prime_rehash_policyENS8_17_Hashtable_traitsILb0ELb0ELb1EEEED1Ev, symObjAddr: 0x854, symBinAddr: 0x100000F9C, symSize: 0x30 }
  - { offset: 0x28FF1, size: 0x8, addend: 0x0, symName: __ZNSt8__detail21_Hashtable_ebo_helperILi0ESaINS_10_Hash_nodeISt4pairIKiSt6vectorIS2_IiiESaIS5_EEELb0EEEELb1EEC2Ev, symObjAddr: 0x828, symBinAddr: 0x100000F70, symSize: 0x2C }
  - { offset: 0x29078, size: 0x8, addend: 0x0, symName: __ZNSt8__detail21_Hashtable_ebo_helperILi0ESt8equal_toIiELb1EEC2Ev, symObjAddr: 0x814, symBinAddr: 0x100000F5C, symSize: 0x14 }
  - { offset: 0x290B8, size: 0x8, addend: 0x0, symName: __ZNSt8__detail21_Hashtable_ebo_helperILi1ESt4hashIiELb1EEC2Ev, symObjAddr: 0x800, symBinAddr: 0x100000F48, symSize: 0x14 }
  - { offset: 0x290E0, size: 0x8, addend: 0x0, symName: __ZSt7forwardIiEOT_RNSt16remove_referenceIS0_E4typeE, symObjAddr: 0x7EC, symBinAddr: 0x100000F34, symSize: 0x14 }
  - { offset: 0x29112, size: 0x8, addend: 0x0, symName: __ZSt3maxImERKT_S2_S2_, symObjAddr: 0x7B4, symBinAddr: 0x100000EFC, symSize: 0x38 }
  - { offset: 0x2915D, size: 0x8, addend: 0x0, symName: _main, symObjAddr: 0x744, symBinAddr: 0x100000E8C, symSize: 0x70 }
  - { offset: 0x29186, size: 0x8, addend: 0x0, symName: __ZNSt10__pair_getILm1EE5__getIKiSt6vectorISt4pairIiiESaIS5_EEEERT0_RS4_IT_S8_E, symObjAddr: 0x34C, symBinAddr: 0x100000A94, symSize: 0x18 }
  - { offset: 0x291C2, size: 0x8, addend: 0x0, symName: __ZSt3getILm1EKiSt6vectorISt4pairIiiESaIS3_EEERNSt13tuple_elementIXT_ES2_IT0_T1_EE4typeERS9_, symObjAddr: 0x330, symBinAddr: 0x100000A78, symSize: 0x1C }
  - { offset: 0x29208, size: 0x8, addend: 0x0, symName: __ZNSt10__pair_getILm0EE5__getIKiSt6vectorISt4pairIiiESaIS5_EEEERT_RS4_IS8_T0_E, symObjAddr: 0x31C, symBinAddr: 0x100000A64, symSize: 0x14 }
  - { offset: 0x29244, size: 0x8, addend: 0x0, symName: __ZSt3getILm0EKiSt6vectorISt4pairIiiESaIS3_EEERNSt13tuple_elementIXT_ES2_IT0_T1_EE4typeERS9_, symObjAddr: 0x300, symBinAddr: 0x100000A48, symSize: 0x1C }
  - { offset: 0x292B5, size: 0x8, addend: 0x0, symName: __ZNSt13unordered_mapIiSt6vectorISt4pairIiiESaIS2_EESt4hashIiESt8equal_toIiESaIS1_IKiS4_EEED1Ev, symObjAddr: 0x2E0, symBinAddr: 0x100000A28, symSize: 0x20 }
  - { offset: 0x292F5, size: 0x8, addend: 0x0, symName: __ZNSt13unordered_mapIiSt6vectorISt4pairIiiESaIS2_EESt4hashIiESt8equal_toIiESaIS1_IKiS4_EEEC1Ev, symObjAddr: 0x2C0, symBinAddr: 0x100000A08, symSize: 0x20 }
  - { offset: 0x29335, size: 0x8, addend: 0x0, symName: __ZNSt10_HashtableIiSt4pairIKiSt6vectorIS0_IiiESaIS3_EEESaIS6_ENSt8__detail10_Select1stESt8equal_toIiESt4hashIiENS8_18_Mod_range_hashingENS8_20_Default_ranged_hashENS8_20_Prime_rehash_policyENS8_17_Hashtable_traitsILb0ELb0ELb1EEEEC1Ev, symObjAddr: 0x250, symBinAddr: 0x100000998, symSize: 0x70 }
  - { offset: 0x29383, size: 0x8, addend: 0x0, symName: __ZNSt8__detail16_Hashtable_allocISaINS_10_Hash_nodeISt4pairIKiSt6vectorIS2_IiiESaIS5_EEELb0EEEEED2Ev, symObjAddr: 0x230, symBinAddr: 0x100000978, symSize: 0x20 }
  - { offset: 0x293C3, size: 0x8, addend: 0x0, symName: __ZNSt8__detail16_Hashtable_allocISaINS_10_Hash_nodeISt4pairIKiSt6vectorIS2_IiiESaIS5_EEELb0EEEEEC2Ev, symObjAddr: 0x210, symBinAddr: 0x100000958, symSize: 0x20 }
  - { offset: 0x29411, size: 0x8, addend: 0x0, symName: __ZNSt8__detail21_Hashtable_ebo_helperILi0ESaINS_10_Hash_nodeISt4pairIKiSt6vectorIS2_IiiESaIS5_EEELb0EEEELb1EED2Ev, symObjAddr: 0x1E4, symBinAddr: 0x10000092C, symSize: 0x2C }
  - { offset: 0x29475, size: 0x8, addend: 0x0, symName: __ZNSt8__detail15_Hashtable_baseIiSt4pairIKiSt6vectorIS1_IiiESaIS4_EEENS_10_Select1stESt8equal_toIiESt4hashIiENS_18_Mod_range_hashingENS_20_Default_ranged_hashENS_17_Hashtable_traitsILb0ELb0ELb1EEEEC2Ev, symObjAddr: 0x1BC, symBinAddr: 0x100000904, symSize: 0x28 }
  - { offset: 0x294B5, size: 0x8, addend: 0x0, symName: __ZNSt8__detail15_Hash_code_baseIiSt4pairIKiSt6vectorIS1_IiiESaIS4_EEENS_10_Select1stESt4hashIiENS_18_Mod_range_hashingENS_20_Default_ranged_hashELb0EEC2Ev, symObjAddr: 0x19C, symBinAddr: 0x1000008E4, symSize: 0x20 }
  - { offset: 0x294D7, size: 0x8, addend: 0x0, symName: __ZSt3minImERKT_S2_S2_, symObjAddr: 0x164, symBinAddr: 0x1000008AC, symSize: 0x38 }
  - { offset: 0x2951D, size: 0x8, addend: 0x0, symName: __ZNSt8__detail20_Prime_rehash_policy8_M_resetEm, symObjAddr: 0x140, symBinAddr: 0x100000888, symSize: 0x24 }
  - { offset: 0x29558, size: 0x8, addend: 0x0, symName: __ZNKSt8__detail20_Prime_rehash_policy8_M_stateEv, symObjAddr: 0x128, symBinAddr: 0x100000870, symSize: 0x18 }
  - { offset: 0x29582, size: 0x8, addend: 0x0, symName: __ZNKSt8__detail20_Prime_rehash_policy19_M_bkt_for_elementsEm, symObjAddr: 0xF0, symBinAddr: 0x100000838, symSize: 0x38 }
  - { offset: 0x295E5, size: 0x8, addend: 0x0, symName: __ZNSt8__detail20_Prime_rehash_policyC1Ef, symObjAddr: 0xC4, symBinAddr: 0x10000080C, symSize: 0x2C }
  - { offset: 0x29614, size: 0x8, addend: 0x0, symName: __ZNKSt8__detail18_Mod_range_hashingclEmm, symObjAddr: 0x94, symBinAddr: 0x1000007DC, symSize: 0x30 }
  - { offset: 0x2967A, size: 0x8, addend: 0x0, symName: __ZNSt8__detail15_Hash_node_baseC1Ev, symObjAddr: 0x78, symBinAddr: 0x1000007C0, symSize: 0x1C }
  - { offset: 0x296A4, size: 0x8, addend: 0x0, symName: __ZNSt8__detail15_Hash_node_baseC2Ev, symObjAddr: 0x5C, symBinAddr: 0x1000007A4, symSize: 0x1C }
  - { offset: 0x296CA, size: 0x8, addend: 0x0, symName: __ZNKSt4hashIiEclEi, symObjAddr: 0x44, symBinAddr: 0x10000078C, symSize: 0x18 }
  - { offset: 0x29707, size: 0x8, addend: 0x0, symName: __ZdlPvS_, symObjAddr: 0x2C, symBinAddr: 0x100000774, symSize: 0x18 }
  - { offset: 0x2973D, size: 0x8, addend: 0x0, symName: __ZnwmPv, symObjAddr: 0x14, symBinAddr: 0x10000075C, symSize: 0x18 }
  - { offset: 0x2976F, size: 0x8, addend: 0x0, symName: __ZSt17__size_to_integerm, symObjAddr: 0x0, symBinAddr: 0x100000748, symSize: 0x14 }
...
