---
triple:          'arm64-apple-darwin'
binary-path:     '/Users/mengchengxi/Documents/code/C++C/competition/C1. Equal Multisets (Easy Version)'
relocations:
  - { offset: 0x1EB85, size: 0x8, addend: 0x0, symName: __ZStL8__ioinit, symObjAddr: 0x923D9, symBinAddr: 0x10000C010, symSize: 0x0 }
  - { offset: 0x1EFB2, size: 0x8, addend: 0x0, symName: __ZL3INF, symObjAddr: 0x2B24, symBinAddr: 0x100003BB0, symSize: 0x0 }
  - { offset: 0x1EFC9, size: 0x8, addend: 0x0, symName: __ZL3mod, symObjAddr: 0x2B28, symBinAddr: 0x100003BB4, symSize: 0x0 }
  - { offset: 0x1F32F, size: 0x8, addend: 0x0, symName: _safe_map, symObjAddr: 0x923E0, symBinAddr: 0x10000C018, symSize: 0x0 }
  - { offset: 0x1F6C2, size: 0x8, addend: 0x0, symName: __GLOBAL__sub_I_C1._Equal_Multisets__Easy_Version_.cpp, symObjAddr: 0x2CAC, symBinAddr: 0x10000336C, symSize: 0x14 }
  - { offset: 0x1F6DA, size: 0x8, addend: 0x0, symName: __Z41__static_initialization_and_destruction_0v, symObjAddr: 0x2C48, symBinAddr: 0x100003308, symSize: 0x64 }
  - { offset: 0x1F71D, size: 0x8, addend: 0x0, symName: __ZNSt13unordered_mapIxi11custom_hashSt8equal_toIxESaISt4pairIKxiEEED1Ev, symObjAddr: 0x2B00, symBinAddr: 0x1000032E8, symSize: 0x20 }
  - { offset: 0x1F73F, size: 0x8, addend: 0x0, symName: __ZNSt10_Head_baseILm0EOxLb0EE7_M_headERS1_, symObjAddr: 0x2AE8, symBinAddr: 0x1000032D0, symSize: 0x18 }
  - { offset: 0x1F768, size: 0x8, addend: 0x0, symName: __ZNSt11_Tuple_implILm0EJOxEE7_M_headERS1_, symObjAddr: 0x2ACC, symBinAddr: 0x1000032B4, symSize: 0x1C }
  - { offset: 0x1F792, size: 0x8, addend: 0x0, symName: __ZSt12__get_helperILm0EOxJEERT0_RSt11_Tuple_implIXT_EJS1_DpT1_EE, symObjAddr: 0x2AB0, symBinAddr: 0x100003298, symSize: 0x1C }
  - { offset: 0x1F7DB, size: 0x8, addend: 0x0, symName: __ZSt7forwardIOxEOT_RNSt16remove_referenceIS1_E4typeE, symObjAddr: 0x2A9C, symBinAddr: 0x100003284, symSize: 0x14 }
  - { offset: 0x1F80D, size: 0x8, addend: 0x0, symName: __ZSt3getILm0EJOxEERNSt13tuple_elementIXT_ESt5tupleIJDpT0_EEE4typeERS5_, symObjAddr: 0x2A80, symBinAddr: 0x100003268, symSize: 0x1C }
  - { offset: 0x1F84C, size: 0x8, addend: 0x0, symName: __ZSt9__fill_a1IPiiEN9__gnu_cxx11__enable_ifIXsrSt11__is_scalarIT0_E7__valueEvE6__typeET_S8_RKS4_, symObjAddr: 0x2A28, symBinAddr: 0x100003210, symSize: 0x58 }
  - { offset: 0x1F928, size: 0x8, addend: 0x0, symName: __ZNSt4pairIKxiEC1IJOxEJLm0EEJEJEEERSt5tupleIJDpT_EERS4_IJDpT1_EESt12_Index_tupleIJXspT0_EEESD_IJXspT2_EEE, symObjAddr: 0x29E0, symBinAddr: 0x1000031C8, symSize: 0x48 }
  - { offset: 0x1F997, size: 0x8, addend: 0x0, symName: __ZSt8__fill_aIPiiEvT_S1_RKT0_, symObjAddr: 0x29B0, symBinAddr: 0x100003198, symSize: 0x30 }
  - { offset: 0x1F9F9, size: 0x8, addend: 0x0, symName: __ZNSt15__new_allocatorIPNSt8__detail15_Hash_node_baseEE8allocateEmPKv, symObjAddr: 0x2934, symBinAddr: 0x10000311C, symSize: 0x7C }
  - { offset: 0x1FA81, size: 0x8, addend: 0x0, symName: __ZSt11__addressofINSt8__detail10_Hash_nodeISt4pairIKxiELb1EEEEPT_RS6_, symObjAddr: 0x2920, symBinAddr: 0x100003108, symSize: 0x14 }
  - { offset: 0x1FABB, size: 0x8, addend: 0x0, symName: __ZNK9__gnu_cxx16__aligned_bufferISt4pairIKxiEE7_M_addrEv, symObjAddr: 0x290C, symBinAddr: 0x1000030F4, symSize: 0x14 }
  - { offset: 0x1FB30, size: 0x8, addend: 0x0, symName: __ZNSt4pairIKxiEC1IJOxEJEEESt21piecewise_construct_tSt5tupleIJDpT_EES5_IJDpT0_EE, symObjAddr: 0x28D0, symBinAddr: 0x1000030B8, symSize: 0x3C }
  - { offset: 0x1FBAA, size: 0x8, addend: 0x0, symName: __ZNSt11_Tuple_implILm0EJOxEEC2EOS1_, symObjAddr: 0x28A8, symBinAddr: 0x100003090, symSize: 0x28 }
  - { offset: 0x1FBD5, size: 0x8, addend: 0x0, symName: __ZSt10__fill_n_aIPimiET_S1_T0_RKT1_St26random_access_iterator_tag, symObjAddr: 0x2844, symBinAddr: 0x10000302C, symSize: 0x64 }
  - { offset: 0x1FC5B, size: 0x8, addend: 0x0, symName: __ZSt12__to_addressIPNSt8__detail15_Hash_node_baseEEPT_S4_, symObjAddr: 0x2830, symBinAddr: 0x100003018, symSize: 0x14 }
  - { offset: 0x1FCB1, size: 0x8, addend: 0x0, symName: __ZSt11__addressofIPNSt8__detail15_Hash_node_baseEEPT_RS3_, symObjAddr: 0x281C, symBinAddr: 0x100003004, symSize: 0x14 }
  - { offset: 0x1FCE3, size: 0x8, addend: 0x0, symName: __ZSt9addressofINSt8__detail10_Hash_nodeISt4pairIKxiELb1EEEEPT_RS6_, symObjAddr: 0x2800, symBinAddr: 0x100002FE8, symSize: 0x1C }
  - { offset: 0x1FD19, size: 0x8, addend: 0x0, symName: __ZNK9__gnu_cxx16__aligned_bufferISt4pairIKxiEE6_M_ptrEv, symObjAddr: 0x27E4, symBinAddr: 0x100002FCC, symSize: 0x1C }
  - { offset: 0x1FD43, size: 0x8, addend: 0x0, symName: __ZNKSt8__detail21_Hashtable_ebo_helperILi0ESt8equal_toIxELb1EE7_M_cgetEv, symObjAddr: 0x27D0, symBinAddr: 0x100002FB8, symSize: 0x14 }
  - { offset: 0x1FD6D, size: 0x8, addend: 0x0, symName: __ZNSt15__new_allocatorINSt8__detail10_Hash_nodeISt4pairIKxiELb1EEEE10deallocateEPS5_m, symObjAddr: 0x27A0, symBinAddr: 0x100002F88, symSize: 0x30 }
  - { offset: 0x1FE3A, size: 0x8, addend: 0x0, symName: __ZNSt5tupleIJOxEEC1EOS1_, symObjAddr: 0x2778, symBinAddr: 0x100002F60, symSize: 0x28 }
  - { offset: 0x1FE69, size: 0x8, addend: 0x0, symName: __ZNSt15__new_allocatorINSt8__detail10_Hash_nodeISt4pairIKxiELb1EEEE8allocateEmPKv, symObjAddr: 0x26FC, symBinAddr: 0x100002EE4, symSize: 0x7C }
  - { offset: 0x1FF25, size: 0x8, addend: 0x0, symName: __ZNSt10_Head_baseILm0EOxLb0EEC2IxEEOT_, symObjAddr: 0x26CC, symBinAddr: 0x100002EB4, symSize: 0x30 }
  - { offset: 0x1FF61, size: 0x8, addend: 0x0, symName: __ZN9__gnu_cxx16__aligned_bufferISt4pairIKxiEE7_M_addrEv, symObjAddr: 0x26B8, symBinAddr: 0x100002EA0, symSize: 0x14 }
  - { offset: 0x1FF87, size: 0x8, addend: 0x0, symName: __ZNSt8__detail15_Hashtable_baseIxSt4pairIKxiENS_10_Select1stESt8equal_toIxE11custom_hashNS_18_Mod_range_hashingENS_20_Default_ranged_hashENS_17_Hashtable_traitsILb1ELb0ELb1EEEE9_S_equalsEmRKNS_21_Hash_node_code_cacheILb1EEE, symObjAddr: 0x268C, symBinAddr: 0x100002E74, symSize: 0x2C }
  - { offset: 0x1FFC2, size: 0x8, addend: 0x0, symName: __ZSt6fill_nIPimiET_S1_T0_RKT1_, symObjAddr: 0x2644, symBinAddr: 0x100002E2C, symSize: 0x48 }
  - { offset: 0x2004A, size: 0x8, addend: 0x0, symName: __ZSt10_ConstructIiJEEvPT_DpOT0_, symObjAddr: 0x2618, symBinAddr: 0x100002E00, symSize: 0x2C }
  - { offset: 0x20086, size: 0x8, addend: 0x0, symName: __ZSt11__addressofIiEPT_RS0_, symObjAddr: 0x2604, symBinAddr: 0x100002DEC, symSize: 0x14 }
  - { offset: 0x200BC, size: 0x8, addend: 0x0, symName: __ZNSt15__new_allocatorIiE8allocateEmPKv, symObjAddr: 0x2588, symBinAddr: 0x100002D70, symSize: 0x7C }
  - { offset: 0x20148, size: 0x8, addend: 0x0, symName: __ZNSt8__detail16_Hashtable_allocISaINS_10_Hash_nodeISt4pairIKxiELb1EEEEE19_M_allocate_bucketsEm, symObjAddr: 0x24D8, symBinAddr: 0x100002CC0, symSize: 0xB0 }
  - { offset: 0x2026F, size: 0x8, addend: 0x0, symName: __ZNSt15__new_allocatorIPNSt8__detail15_Hash_node_baseEE10deallocateEPS2_m, symObjAddr: 0x24A8, symBinAddr: 0x100002C90, symSize: 0x30 }
  - { offset: 0x202DD, size: 0x8, addend: 0x0, symName: __ZNSt15__new_allocatorIPNSt8__detail15_Hash_node_baseEED2Ev, symObjAddr: 0x2494, symBinAddr: 0x100002C7C, symSize: 0x14 }
  - { offset: 0x20315, size: 0x8, addend: 0x0, symName: __ZSt9addressofIPNSt8__detail15_Hash_node_baseEEPT_RS3_, symObjAddr: 0x2478, symBinAddr: 0x100002C60, symSize: 0x1C }
  - { offset: 0x20347, size: 0x8, addend: 0x0, symName: __ZNSt19__ptr_traits_ptr_toIPNSt8__detail10_Hash_nodeISt4pairIKxiELb1EEES5_Lb0EE10pointer_toERS5_, symObjAddr: 0x245C, symBinAddr: 0x100002C44, symSize: 0x1C }
  - { offset: 0x203A0, size: 0x8, addend: 0x0, symName: __ZNSt8__detail21_Hashtable_ebo_helperILi0ESaINS_10_Hash_nodeISt4pairIKxiELb1EEEELb1EE6_M_getEv, symObjAddr: 0x2448, symBinAddr: 0x100002C30, symSize: 0x14 }
  - { offset: 0x203CD, size: 0x8, addend: 0x0, symName: __ZSt7forwardIRKSt4pairIKxiEEOT_RNSt16remove_referenceIS5_E4typeE, symObjAddr: 0x2434, symBinAddr: 0x100002C1C, symSize: 0x14 }
  - { offset: 0x20419, size: 0x8, addend: 0x0, symName: __ZNKSt8equal_toIxEclERKxS2_, symObjAddr: 0x2400, symBinAddr: 0x100002BE8, symSize: 0x34 }
  - { offset: 0x20465, size: 0x8, addend: 0x0, symName: __ZNKSt8__detail15_Hashtable_baseIxSt4pairIKxiENS_10_Select1stESt8equal_toIxE11custom_hashNS_18_Mod_range_hashingENS_20_Default_ranged_hashENS_17_Hashtable_traitsILb1ELb0ELb1EEEE5_M_eqEv, symObjAddr: 0x23E4, symBinAddr: 0x100002BCC, symSize: 0x1C }
  - { offset: 0x2048B, size: 0x8, addend: 0x0, symName: __ZNSt8__detail22_Hashtable_hash_traitsI11custom_hashE22__small_size_thresholdEv, symObjAddr: 0x23DC, symBinAddr: 0x100002BC4, symSize: 0x8 }
  - { offset: 0x204CF, size: 0x8, addend: 0x0, symName: __ZNSt8__detail19_Node_iterator_baseISt4pairIKxiELb1EEC2EPNS_10_Hash_nodeIS3_Lb1EEE, symObjAddr: 0x23B8, symBinAddr: 0x100002BA0, symSize: 0x24 }
  - { offset: 0x20584, size: 0x8, addend: 0x0, symName: __ZSt12__to_addressINSt8__detail10_Hash_nodeISt4pairIKxiELb1EEEEPT_S7_, symObjAddr: 0x23A4, symBinAddr: 0x100002B8C, symSize: 0x14 }
  - { offset: 0x2060F, size: 0x8, addend: 0x0, symName: __ZNSt11_Tuple_implILm0EJOxEEC2IxEEOT_, symObjAddr: 0x2368, symBinAddr: 0x100002B50, symSize: 0x3C }
  - { offset: 0x20647, size: 0x8, addend: 0x0, symName: __ZN9__gnu_cxx16__aligned_bufferISt4pairIKxiEE6_M_ptrEv, symObjAddr: 0x234C, symBinAddr: 0x100002B34, symSize: 0x1C }
  - { offset: 0x20671, size: 0x8, addend: 0x0, symName: __ZNKSt10_HashtableIxSt4pairIKxiESaIS2_ENSt8__detail10_Select1stESt8equal_toIxE11custom_hashNS4_18_Mod_range_hashingENS4_20_Default_ranged_hashENS4_20_Prime_rehash_policyENS4_17_Hashtable_traitsILb1ELb0ELb1EEEE15_M_bucket_indexERKNS4_16_Hash_node_valueIS2_Lb1EEE, symObjAddr: 0x231C, symBinAddr: 0x100002B04, symSize: 0x30 }
  - { offset: 0x206AC, size: 0x8, addend: 0x0, symName: __ZNKSt8__detail15_Hashtable_baseIxSt4pairIKxiENS_10_Select1stESt8equal_toIxE11custom_hashNS_18_Mod_range_hashingENS_20_Default_ranged_hashENS_17_Hashtable_traitsILb1ELb0ELb1EEEE9_M_equalsERS2_mRKNS_16_Hash_node_valueIS3_Lb1EEE, symObjAddr: 0x22B4, symBinAddr: 0x100002A9C, symSize: 0x68 }
  - { offset: 0x20709, size: 0x8, addend: 0x0, symName: __ZNKSt8__detail21_Hashtable_ebo_helperILi1E11custom_hashLb1EE7_M_cgetEv, symObjAddr: 0x22A0, symBinAddr: 0x100002A88, symSize: 0x14 }
  - { offset: 0x2072F, size: 0x8, addend: 0x0, symName: __ZNSt27__uninitialized_default_n_1ILb1EE18__uninit_default_nIPimEET_S3_T0_, symObjAddr: 0x223C, symBinAddr: 0x100002A24, symSize: 0x64 }
  - { offset: 0x207AA, size: 0x8, addend: 0x0, symName: __ZNSt15__new_allocatorIiE10deallocateEPim, symObjAddr: 0x220C, symBinAddr: 0x1000029F4, symSize: 0x30 }
  - { offset: 0x2082E, size: 0x8, addend: 0x0, symName: __ZNKSt8__detail15_Hash_code_baseIxSt4pairIKxiENS_10_Select1stE11custom_hashNS_18_Mod_range_hashingENS_20_Default_ranged_hashELb1EE15_M_bucket_indexERKNS_16_Hash_node_valueIS3_Lb1EEEm, symObjAddr: 0x21DC, symBinAddr: 0x1000029C4, symSize: 0x30 }
  - { offset: 0x2087A, size: 0x8, addend: 0x0, symName: __ZNSt10_HashtableIxSt4pairIKxiESaIS2_ENSt8__detail10_Select1stESt8equal_toIxE11custom_hashNS4_18_Mod_range_hashingENS4_20_Default_ranged_hashENS4_20_Prime_rehash_policyENS4_17_Hashtable_traitsILb1ELb0ELb1EEEE19_M_allocate_bucketsEm, symObjAddr: 0x2184, symBinAddr: 0x10000296C, symSize: 0x58 }
  - { offset: 0x208B1, size: 0x8, addend: 0x0, symName: __ZSt11__addressofINSt8__detail20_Prime_rehash_policyEEPT_RS2_, symObjAddr: 0x2170, symBinAddr: 0x100002958, symSize: 0x14 }
  - { offset: 0x20959, size: 0x8, addend: 0x0, symName: __ZNSt19__ptr_traits_ptr_toIPPNSt8__detail15_Hash_node_baseES2_Lb0EE10pointer_toERS2_, symObjAddr: 0x2154, symBinAddr: 0x10000293C, symSize: 0x1C }
  - { offset: 0x20986, size: 0x8, addend: 0x0, symName: __ZNSt8__detail16_Hashtable_allocISaINS_10_Hash_nodeISt4pairIKxiELb1EEEEE22_M_deallocate_node_ptrEPS5_, symObjAddr: 0x20FC, symBinAddr: 0x1000028E4, symSize: 0x58 }
  - { offset: 0x20A35, size: 0x8, addend: 0x0, symName: __ZNSt8__detail16_Hashtable_allocISaINS_10_Hash_nodeISt4pairIKxiELb1EEEEE17_M_node_allocatorEv, symObjAddr: 0x20E0, symBinAddr: 0x1000028C8, symSize: 0x1C }
  - { offset: 0x20A6A, size: 0x8, addend: 0x0, symName: __ZNKSt8__detail10_Select1stclIRKSt4pairIKxiEEEONS0_10__1st_typeIT_E4typeEOS8_, symObjAddr: 0x20C0, symBinAddr: 0x1000028A8, symSize: 0x20 }
  - { offset: 0x20AC3, size: 0x8, addend: 0x0, symName: __ZNKSt10_HashtableIxSt4pairIKxiESaIS2_ENSt8__detail10_Select1stESt8equal_toIxE11custom_hashNS4_18_Mod_range_hashingENS4_20_Default_ranged_hashENS4_20_Prime_rehash_policyENS4_17_Hashtable_traitsILb1ELb0ELb1EEEE3endEv, symObjAddr: 0x209C, symBinAddr: 0x100002884, symSize: 0x24 }
  - { offset: 0x20B15, size: 0x8, addend: 0x0, symName: __ZNSt8__detail20_Node_const_iteratorISt4pairIKxiELb0ELb1EEC1EPNS_10_Hash_nodeIS3_Lb1EEE, symObjAddr: 0x2074, symBinAddr: 0x10000285C, symSize: 0x28 }
  - { offset: 0x20B44, size: 0x8, addend: 0x0, symName: __ZNKSt8__detail15_Hashtable_baseIxSt4pairIKxiENS_10_Select1stESt8equal_toIxE11custom_hashNS_18_Mod_range_hashingENS_20_Default_ranged_hashENS_17_Hashtable_traitsILb1ELb0ELb1EEEE13_M_key_equalsERS2_RKNS_16_Hash_node_valueIS3_Lb1EEE, symObjAddr: 0x2008, symBinAddr: 0x1000027F0, symSize: 0x6C }
  - { offset: 0x20BD4, size: 0x8, addend: 0x0, symName: __ZNSt10_HashtableIxSt4pairIKxiESaIS2_ENSt8__detail10_Select1stESt8equal_toIxE11custom_hashNS4_18_Mod_range_hashingENS4_20_Default_ranged_hashENS4_20_Prime_rehash_policyENS4_17_Hashtable_traitsILb1ELb0ELb1EEEE22__small_size_thresholdEv, symObjAddr: 0x1FF4, symBinAddr: 0x1000027DC, symSize: 0x14 }
  - { offset: 0x20BF0, size: 0x8, addend: 0x0, symName: __ZNKSt10_HashtableIxSt4pairIKxiESaIS2_ENSt8__detail10_Select1stESt8equal_toIxE11custom_hashNS4_18_Mod_range_hashingENS4_20_Default_ranged_hashENS4_20_Prime_rehash_policyENS4_17_Hashtable_traitsILb1ELb0ELb1EEEE4sizeEv, symObjAddr: 0x1FDC, symBinAddr: 0x1000027C4, symSize: 0x18 }
  - { offset: 0x20C42, size: 0x8, addend: 0x0, symName: __ZNSt8__detail14_Node_iteratorISt4pairIKxiELb0ELb1EEC1EPNS_10_Hash_nodeIS3_Lb1EEE, symObjAddr: 0x1FB4, symBinAddr: 0x10000279C, symSize: 0x28 }
  - { offset: 0x20C71, size: 0x8, addend: 0x0, symName: __ZNSt10_HashtableIxSt4pairIKxiESaIS2_ENSt8__detail10_Select1stESt8equal_toIxE11custom_hashNS4_18_Mod_range_hashingENS4_20_Default_ranged_hashENS4_20_Prime_rehash_policyENS4_17_Hashtable_traitsILb1ELb0ELb1EEEE22_M_insert_bucket_beginEmPNS4_10_Hash_nodeIS2_Lb1EEE, symObjAddr: 0x1EA8, symBinAddr: 0x100002690, symSize: 0x10C }
  - { offset: 0x20CBD, size: 0x8, addend: 0x0, symName: __ZNKSt8__detail15_Hash_code_baseIxSt4pairIKxiENS_10_Select1stE11custom_hashNS_18_Mod_range_hashingENS_20_Default_ranged_hashELb1EE13_M_store_codeERNS_21_Hash_node_code_cacheILb1EEEm, symObjAddr: 0x1E80, symBinAddr: 0x100002668, symSize: 0x28 }
  - { offset: 0x20D09, size: 0x8, addend: 0x0, symName: __ZNSt8__detail16_Hashtable_allocISaINS_10_Hash_nodeISt4pairIKxiELb1EEEEE16_M_allocate_nodeIJRKSt21piecewise_construct_tSt5tupleIJOxEESC_IJEEEEEPS5_DpOT_, symObjAddr: 0x1C94, symBinAddr: 0x10000247C, symSize: 0x1EC }
  - { offset: 0x20ED9, size: 0x8, addend: 0x0, symName: __ZNSt8__detail10_Hash_nodeISt4pairIKxiELb1EEC1Ev, symObjAddr: 0x1C74, symBinAddr: 0x10000245C, symSize: 0x20 }
  - { offset: 0x20F02, size: 0x8, addend: 0x0, symName: __ZSt7forwardISt5tupleIJEEEOT_RNSt16remove_referenceIS2_E4typeE, symObjAddr: 0x1C60, symBinAddr: 0x100002448, symSize: 0x14 }
  - { offset: 0x20F3B, size: 0x8, addend: 0x0, symName: __ZSt7forwardISt5tupleIJOxEEEOT_RNSt16remove_referenceIS3_E4typeE, symObjAddr: 0x1C4C, symBinAddr: 0x100002434, symSize: 0x14 }
  - { offset: 0x20F74, size: 0x8, addend: 0x0, symName: __ZSt7forwardIRKSt21piecewise_construct_tEOT_RNSt16remove_referenceIS3_E4typeE, symObjAddr: 0x1C38, symBinAddr: 0x100002420, symSize: 0x14 }
  - { offset: 0x20FE5, size: 0x8, addend: 0x0, symName: __ZNSt5tupleIJOxEEC1IJxELb1ELb1EEEDpOT_, symObjAddr: 0x1BFC, symBinAddr: 0x1000023E4, symSize: 0x3C }
  - { offset: 0x21033, size: 0x8, addend: 0x0, symName: __ZSt7forwardIxEOT_RNSt16remove_referenceIS0_E4typeE, symObjAddr: 0x1BE8, symBinAddr: 0x1000023D0, symSize: 0x14 }
  - { offset: 0x2107F, size: 0x8, addend: 0x0, symName: __ZNKSt10_HashtableIxSt4pairIKxiESaIS2_ENSt8__detail10_Select1stESt8equal_toIxE11custom_hashNS4_18_Mod_range_hashingENS4_20_Default_ranged_hashENS4_20_Prime_rehash_policyENS4_17_Hashtable_traitsILb1ELb0ELb1EEEE19_M_find_before_nodeEmRS1_m, symObjAddr: 0x1AEC, symBinAddr: 0x1000022D4, symSize: 0xFC }
  - { offset: 0x21111, size: 0x8, addend: 0x0, symName: __ZNKSt8__detail15_Hash_code_baseIxSt4pairIKxiENS_10_Select1stE11custom_hashNS_18_Mod_range_hashingENS_20_Default_ranged_hashELb1EE15_M_bucket_indexEmm, symObjAddr: 0x1AC0, symBinAddr: 0x1000022A8, symSize: 0x2C }
  - { offset: 0x2115D, size: 0x8, addend: 0x0, symName: __ZNKSt8__detail15_Hash_code_baseIxSt4pairIKxiENS_10_Select1stE11custom_hashNS_18_Mod_range_hashingENS_20_Default_ranged_hashELb1EE7_M_hashEv, symObjAddr: 0x1AA4, symBinAddr: 0x10000228C, symSize: 0x1C }
  - { offset: 0x21183, size: 0x8, addend: 0x0, symName: __ZNSt12_Destroy_auxILb1EE9__destroyIPiEEvT_S3_, symObjAddr: 0x1A8C, symBinAddr: 0x100002274, symSize: 0x18 }
  - { offset: 0x211B7, size: 0x8, addend: 0x0, symName: __ZSt25__uninitialized_default_nIPimET_S1_T0_, symObjAddr: 0x1A60, symBinAddr: 0x100002248, symSize: 0x2C }
  - { offset: 0x2124B, size: 0x8, addend: 0x0, symName: __ZNSt12_Vector_baseIiSaIiEE11_M_allocateEm, symObjAddr: 0x1A10, symBinAddr: 0x1000021F8, symSize: 0x50 }
  - { offset: 0x212CD, size: 0x8, addend: 0x0, symName: __ZNSt12_Vector_baseIiSaIiEE17_Vector_impl_dataC2Ev, symObjAddr: 0x19E4, symBinAddr: 0x1000021CC, symSize: 0x2C }
  - { offset: 0x21324, size: 0x8, addend: 0x0, symName: __ZNSt10_HashtableIxSt4pairIKxiESaIS2_ENSt8__detail10_Select1stESt8equal_toIxE11custom_hashNS4_18_Mod_range_hashingENS4_20_Default_ranged_hashENS4_20_Prime_rehash_policyENS4_17_Hashtable_traitsILb1ELb0ELb1EEEE9_M_rehashEmSt17integral_constantIbLb1EE, symObjAddr: 0x1878, symBinAddr: 0x100002060, symSize: 0x16C }
  - { offset: 0x213F5, size: 0x8, addend: 0x0, symName: __ZNSt8__detail17_RehashStateGuardINS_20_Prime_rehash_policyEED1Ev, symObjAddr: 0x1834, symBinAddr: 0x10000201C, symSize: 0x44 }
  - { offset: 0x21443, size: 0x8, addend: 0x0, symName: __ZNSt8__detail17_RehashStateGuardINS_20_Prime_rehash_policyEEC1ERS1_, symObjAddr: 0x17F0, symBinAddr: 0x100001FD8, symSize: 0x44 }
  - { offset: 0x21472, size: 0x8, addend: 0x0, symName: __ZNSt8__detail16_Hashtable_allocISaINS_10_Hash_nodeISt4pairIKxiELb1EEEEE21_M_deallocate_bucketsEPPNS_15_Hash_node_baseEm, symObjAddr: 0x1778, symBinAddr: 0x100001F60, symSize: 0x78 }
  - { offset: 0x21582, size: 0x8, addend: 0x0, symName: __ZNKSt10_HashtableIxSt4pairIKxiESaIS2_ENSt8__detail10_Select1stESt8equal_toIxE11custom_hashNS4_18_Mod_range_hashingENS4_20_Default_ranged_hashENS4_20_Prime_rehash_policyENS4_17_Hashtable_traitsILb1ELb0ELb1EEEE21_M_uses_single_bucketEPPNS4_15_Hash_node_baseE, symObjAddr: 0x173C, symBinAddr: 0x100001F24, symSize: 0x3C }
  - { offset: 0x215BD, size: 0x8, addend: 0x0, symName: __ZNSt8__detail16_Hashtable_allocISaINS_10_Hash_nodeISt4pairIKxiELb1EEEEE18_M_deallocate_nodeEPS5_, symObjAddr: 0x16C8, symBinAddr: 0x100001EB0, symSize: 0x74 }
  - { offset: 0x21676, size: 0x8, addend: 0x0, symName: __ZNKSt8__detail10_Hash_nodeISt4pairIKxiELb1EE7_M_nextEv, symObjAddr: 0x16B0, symBinAddr: 0x100001E98, symSize: 0x18 }
  - { offset: 0x216A0, size: 0x8, addend: 0x0, symName: __ZNKSt10_HashtableIxSt4pairIKxiESaIS2_ENSt8__detail10_Select1stESt8equal_toIxE11custom_hashNS4_18_Mod_range_hashingENS4_20_Default_ranged_hashENS4_20_Prime_rehash_policyENS4_17_Hashtable_traitsILb1ELb0ELb1EEEE4findERS1_, symObjAddr: 0x15B8, symBinAddr: 0x100001DA0, symSize: 0xF8 }
  - { offset: 0x21721, size: 0x8, addend: 0x0, symName: __ZNKSt8__detail14_Node_iteratorISt4pairIKxiELb0ELb1EEptEv, symObjAddr: 0x1588, symBinAddr: 0x100001D70, symSize: 0x30 }
  - { offset: 0x2176F, size: 0x8, addend: 0x0, symName: __ZNSt10_HashtableIxSt4pairIKxiESaIS2_ENSt8__detail10_Select1stESt8equal_toIxE11custom_hashNS4_18_Mod_range_hashingENS4_20_Default_ranged_hashENS4_20_Prime_rehash_policyENS4_17_Hashtable_traitsILb1ELb0ELb1EEEE21_M_insert_unique_nodeEmmPNS4_10_Hash_nodeIS2_Lb1EEEm, symObjAddr: 0x1478, symBinAddr: 0x100001C60, symSize: 0x110 }
  - { offset: 0x21826, size: 0x8, addend: 0x0, symName: __ZNSt10_HashtableIxSt4pairIKxiESaIS2_ENSt8__detail10_Select1stESt8equal_toIxE11custom_hashNS4_18_Mod_range_hashingENS4_20_Default_ranged_hashENS4_20_Prime_rehash_policyENS4_17_Hashtable_traitsILb1ELb0ELb1EEEE12_Scoped_nodeD1Ev, symObjAddr: 0x1434, symBinAddr: 0x100001C1C, symSize: 0x44 }
  - { offset: 0x2189F, size: 0x8, addend: 0x0, symName: __ZNSt10_HashtableIxSt4pairIKxiESaIS2_ENSt8__detail10_Select1stESt8equal_toIxE11custom_hashNS4_18_Mod_range_hashingENS4_20_Default_ranged_hashENS4_20_Prime_rehash_policyENS4_17_Hashtable_traitsILb1ELb0ELb1EEEE12_Scoped_nodeC1IJRKSt21piecewise_construct_tSt5tupleIJOxEESK_IJEEEEEPNS4_16_Hashtable_allocISaINS4_10_Hash_nodeIS2_Lb1EEEEEEDpOT_, symObjAddr: 0x13AC, symBinAddr: 0x100001B94, symSize: 0x88 }
  - { offset: 0x21901, size: 0x8, addend: 0x0, symName: __ZSt16forward_as_tupleIJxEESt5tupleIJDpOT_EES3_, symObjAddr: 0x1374, symBinAddr: 0x100001B5C, symSize: 0x38 }
  - { offset: 0x2194F, size: 0x8, addend: 0x0, symName: __ZNKSt10_HashtableIxSt4pairIKxiESaIS2_ENSt8__detail10_Select1stESt8equal_toIxE11custom_hashNS4_18_Mod_range_hashingENS4_20_Default_ranged_hashENS4_20_Prime_rehash_policyENS4_17_Hashtable_traitsILb1ELb0ELb1EEEE12_M_find_nodeEmRS1_m, symObjAddr: 0x1320, symBinAddr: 0x100001B08, symSize: 0x54 }
  - { offset: 0x219BD, size: 0x8, addend: 0x0, symName: __ZNKSt10_HashtableIxSt4pairIKxiESaIS2_ENSt8__detail10_Select1stESt8equal_toIxE11custom_hashNS4_18_Mod_range_hashingENS4_20_Default_ranged_hashENS4_20_Prime_rehash_policyENS4_17_Hashtable_traitsILb1ELb0ELb1EEEE15_M_bucket_indexEm, symObjAddr: 0x12F0, symBinAddr: 0x100001AD8, symSize: 0x30 }
  - { offset: 0x219F8, size: 0x8, addend: 0x0, symName: __ZNKSt8__detail15_Hash_code_baseIxSt4pairIKxiENS_10_Select1stE11custom_hashNS_18_Mod_range_hashingENS_20_Default_ranged_hashELb1EE12_M_hash_codeERS2_, symObjAddr: 0x12B8, symBinAddr: 0x100001AA0, symSize: 0x38 }
  - { offset: 0x21A2F, size: 0x8, addend: 0x0, symName: __ZSt8_DestroyIPiEvT_S1_, symObjAddr: 0x1290, symBinAddr: 0x100001A78, symSize: 0x28 }
  - { offset: 0x21A71, size: 0x8, addend: 0x0, symName: __ZSt27__uninitialized_default_n_aIPimiET_S1_T0_RSaIT1_E, symObjAddr: 0x1268, symBinAddr: 0x100001A50, symSize: 0x28 }
  - { offset: 0x21AD4, size: 0x8, addend: 0x0, symName: __ZNSt12_Vector_baseIiSaIiEE13_M_deallocateEPim, symObjAddr: 0x1210, symBinAddr: 0x1000019F8, symSize: 0x58 }
  - { offset: 0x21B56, size: 0x8, addend: 0x0, symName: __ZNSt12_Vector_baseIiSaIiEE17_M_create_storageEm, symObjAddr: 0x11B0, symBinAddr: 0x100001998, symSize: 0x60 }
  - { offset: 0x21BB8, size: 0x8, addend: 0x0, symName: __ZNSt12_Vector_baseIiSaIiEE12_Vector_implC1ERKS0_, symObjAddr: 0x1164, symBinAddr: 0x10000194C, symSize: 0x4C }
  - { offset: 0x21C5E, size: 0x8, addend: 0x0, symName: __ZNSt6vectorIiSaIiEE11_S_max_sizeERKS0_, symObjAddr: 0x1110, symBinAddr: 0x1000018F8, symSize: 0x54 }
  - { offset: 0x21D19, size: 0x8, addend: 0x0, symName: __ZNSt10_HashtableIxSt4pairIKxiESaIS2_ENSt8__detail10_Select1stESt8equal_toIxE11custom_hashNS4_18_Mod_range_hashingENS4_20_Default_ranged_hashENS4_20_Prime_rehash_policyENS4_17_Hashtable_traitsILb1ELb0ELb1EEEE6rehashEm, symObjAddr: 0x1048, symBinAddr: 0x100001830, symSize: 0xC8 }
  - { offset: 0x21D65, size: 0x8, addend: 0x0, symName: __ZNKSt10_HashtableIxSt4pairIKxiESaIS2_ENSt8__detail10_Select1stESt8equal_toIxE11custom_hashNS4_18_Mod_range_hashingENS4_20_Default_ranged_hashENS4_20_Prime_rehash_policyENS4_17_Hashtable_traitsILb1ELb0ELb1EEEE15__rehash_policyEv, symObjAddr: 0x1030, symBinAddr: 0x100001818, symSize: 0x18 }
  - { offset: 0x21D8F, size: 0x8, addend: 0x0, symName: __ZNSt10_HashtableIxSt4pairIKxiESaIS2_ENSt8__detail10_Select1stESt8equal_toIxE11custom_hashNS4_18_Mod_range_hashingENS4_20_Default_ranged_hashENS4_20_Prime_rehash_policyENS4_17_Hashtable_traitsILb1ELb0ELb1EEEE21_M_deallocate_bucketsEPPNS4_15_Hash_node_baseEm, symObjAddr: 0xFE4, symBinAddr: 0x1000017CC, symSize: 0x4C }
  - { offset: 0x21DDB, size: 0x8, addend: 0x0, symName: __ZNSt8__detail16_Hashtable_allocISaINS_10_Hash_nodeISt4pairIKxiELb1EEEEE19_M_deallocate_nodesEPS5_, symObjAddr: 0xF94, symBinAddr: 0x10000177C, symSize: 0x50 }
  - { offset: 0x21E3A, size: 0x8, addend: 0x0, symName: __ZNKSt10_HashtableIxSt4pairIKxiESaIS2_ENSt8__detail10_Select1stESt8equal_toIxE11custom_hashNS4_18_Mod_range_hashingENS4_20_Default_ranged_hashENS4_20_Prime_rehash_policyENS4_17_Hashtable_traitsILb1ELb0ELb1EEEE8_M_beginEv, symObjAddr: 0xF7C, symBinAddr: 0x100001764, symSize: 0x18 }
  - { offset: 0x21E7A, size: 0x8, addend: 0x0, symName: __ZNKSt10_HashtableIxSt4pairIKxiESaIS2_ENSt8__detail10_Select1stESt8equal_toIxE11custom_hashNS4_18_Mod_range_hashingENS4_20_Default_ranged_hashENS4_20_Prime_rehash_policyENS4_17_Hashtable_traitsILb1ELb0ELb1EEEE5countERS1_, symObjAddr: 0xF3C, symBinAddr: 0x100001724, symSize: 0x40 }
  - { offset: 0x21EE5, size: 0x8, addend: 0x0, symName: __ZNSt8__detail9_Map_baseIxSt4pairIKxiESaIS3_ENS_10_Select1stESt8equal_toIxE11custom_hashNS_18_Mod_range_hashingENS_20_Default_ranged_hashENS_20_Prime_rehash_policyENS_17_Hashtable_traitsILb1ELb0ELb1EEELb1EEixEOx, symObjAddr: 0xE0C, symBinAddr: 0x1000015F4, symSize: 0x130 }
  - { offset: 0x21FEE, size: 0x8, addend: 0x0, symName: __ZSt4moveIRxEONSt16remove_referenceIT_E4typeEOS2_, symObjAddr: 0xDF8, symBinAddr: 0x1000015E0, symSize: 0x14 }
  - { offset: 0x2205F, size: 0x8, addend: 0x0, symName: __ZNSt12_Vector_baseIiSaIiEE19_M_get_Tp_allocatorEv, symObjAddr: 0xDE4, symBinAddr: 0x1000015CC, symSize: 0x14 }
  - { offset: 0x22089, size: 0x8, addend: 0x0, symName: __ZNSt6vectorIiSaIiEE21_M_default_initializeEm, symObjAddr: 0xD94, symBinAddr: 0x10000157C, symSize: 0x50 }
  - { offset: 0x220E8, size: 0x8, addend: 0x0, symName: __ZNSt12_Vector_baseIiSaIiEED2Ev, symObjAddr: 0xD44, symBinAddr: 0x10000152C, symSize: 0x50 }
  - { offset: 0x22144, size: 0x8, addend: 0x0, symName: __ZNSt12_Vector_baseIiSaIiEEC2EmRKS0_, symObjAddr: 0xCF0, symBinAddr: 0x1000014D8, symSize: 0x54 }
  - { offset: 0x221A3, size: 0x8, addend: 0x0, symName: __ZNSt12_Vector_baseIiSaIiEE12_Vector_implD1Ev, symObjAddr: 0xCC4, symBinAddr: 0x1000014AC, symSize: 0x2C }
  - { offset: 0x221E8, size: 0x8, addend: 0x0, symName: __ZNSt6vectorIiSaIiEE17_S_check_init_lenEmRKS0_, symObjAddr: 0xC40, symBinAddr: 0x100001428, symSize: 0x84 }
  - { offset: 0x222C2, size: 0x8, addend: 0x0, symName: __ZNSt15__new_allocatorIiED2Ev, symObjAddr: 0xC2C, symBinAddr: 0x100001414, symSize: 0x14 }
  - { offset: 0x222FE, size: 0x8, addend: 0x0, symName: __ZNSt8__detail12_Rehash_baseIxSt4pairIKxiESaIS3_ENS_10_Select1stESt8equal_toIxE11custom_hashNS_18_Mod_range_hashingENS_20_Default_ranged_hashENS_20_Prime_rehash_policyENS_17_Hashtable_traitsILb1ELb0ELb1EEESt17integral_constantIbLb1EEE7reserveEm, symObjAddr: 0xBE0, symBinAddr: 0x1000013C8, symSize: 0x4C }
  - { offset: 0x22350, size: 0x8, addend: 0x0, symName: __ZNSt10_HashtableIxSt4pairIKxiESaIS2_ENSt8__detail10_Select1stESt8equal_toIxE11custom_hashNS4_18_Mod_range_hashingENS4_20_Default_ranged_hashENS4_20_Prime_rehash_policyENS4_17_Hashtable_traitsILb1ELb0ELb1EEEE21_M_deallocate_bucketsEv, symObjAddr: 0xBAC, symBinAddr: 0x100001394, symSize: 0x34 }
  - { offset: 0x2237A, size: 0x8, addend: 0x0, symName: __ZNSt10_HashtableIxSt4pairIKxiESaIS2_ENSt8__detail10_Select1stESt8equal_toIxE11custom_hashNS4_18_Mod_range_hashingENS4_20_Default_ranged_hashENS4_20_Prime_rehash_policyENS4_17_Hashtable_traitsILb1ELb0ELb1EEEE5clearEv, symObjAddr: 0xB4C, symBinAddr: 0x100001334, symSize: 0x60 }
  - { offset: 0x223C8, size: 0x8, addend: 0x0, symName: __ZNSt15__new_allocatorINSt8__detail10_Hash_nodeISt4pairIKxiELb1EEEED2Ev, symObjAddr: 0xB38, symBinAddr: 0x100001320, symSize: 0x14 }
  - { offset: 0x22404, size: 0x8, addend: 0x0, symName: __ZNKSt13unordered_mapIxi11custom_hashSt8equal_toIxESaISt4pairIKxiEEE5countERS4_, symObjAddr: 0xB14, symBinAddr: 0x1000012FC, symSize: 0x24 }
  - { offset: 0x2243F, size: 0x8, addend: 0x0, symName: __ZNSt13unordered_mapIxi11custom_hashSt8equal_toIxESaISt4pairIKxiEEEixEOx, symObjAddr: 0xADC, symBinAddr: 0x1000012C4, symSize: 0x38 }
  - { offset: 0x2247A, size: 0x8, addend: 0x0, symName: __ZNSt6vectorIiSaIiEEixEm, symObjAddr: 0xAB4, symBinAddr: 0x10000129C, symSize: 0x28 }
  - { offset: 0x224D9, size: 0x8, addend: 0x0, symName: __ZNSt6vectorIiSaIiEED1Ev, symObjAddr: 0xA58, symBinAddr: 0x100001240, symSize: 0x5C }
  - { offset: 0x2256B, size: 0x8, addend: 0x0, symName: __ZNSt6vectorIiSaIiEEC1EmRKS0_, symObjAddr: 0x9F0, symBinAddr: 0x1000011D8, symSize: 0x68 }
  - { offset: 0x225D9, size: 0x8, addend: 0x0, symName: __ZNSt13unordered_mapIxi11custom_hashSt8equal_toIxESaISt4pairIKxiEEE7reserveEm, symObjAddr: 0x9C8, symBinAddr: 0x1000011B0, symSize: 0x28 }
  - { offset: 0x22614, size: 0x8, addend: 0x0, symName: __ZNSt13unordered_mapIxi11custom_hashSt8equal_toIxESaISt4pairIKxiEEE5clearEv, symObjAddr: 0x9A8, symBinAddr: 0x100001190, symSize: 0x20 }
  - { offset: 0x22662, size: 0x8, addend: 0x0, symName: __ZNSt10_HashtableIxSt4pairIKxiESaIS2_ENSt8__detail10_Select1stESt8equal_toIxE11custom_hashNS4_18_Mod_range_hashingENS4_20_Default_ranged_hashENS4_20_Prime_rehash_policyENS4_17_Hashtable_traitsILb1ELb0ELb1EEEED1Ev, symObjAddr: 0x978, symBinAddr: 0x100001160, symSize: 0x30 }
  - { offset: 0x226C2, size: 0x8, addend: 0x0, symName: __ZNSt8__detail21_Hashtable_ebo_helperILi0ESaINS_10_Hash_nodeISt4pairIKxiELb1EEEELb1EEC2Ev, symObjAddr: 0x94C, symBinAddr: 0x100001134, symSize: 0x2C }
  - { offset: 0x22749, size: 0x8, addend: 0x0, symName: __ZNSt8__detail21_Hashtable_ebo_helperILi0ESt8equal_toIxELb1EEC2Ev, symObjAddr: 0x938, symBinAddr: 0x100001120, symSize: 0x14 }
  - { offset: 0x22789, size: 0x8, addend: 0x0, symName: __ZNSt8__detail21_Hashtable_ebo_helperILi1E11custom_hashLb1EEC2Ev, symObjAddr: 0x924, symBinAddr: 0x10000110C, symSize: 0x14 }
  - { offset: 0x227AF, size: 0x8, addend: 0x0, symName: __ZNKSt6chrono10time_pointINS_3_V212steady_clockENS_8durationIxSt5ratioILl1ELl1000000000EEEEE16time_since_epochEv, symObjAddr: 0x90C, symBinAddr: 0x1000010F4, symSize: 0x18 }
  - { offset: 0x227D5, size: 0x8, addend: 0x0, symName: __ZSt3maxImERKT_S2_S2_, symObjAddr: 0x8D4, symBinAddr: 0x1000010BC, symSize: 0x38 }
  - { offset: 0x22820, size: 0x8, addend: 0x0, symName: _main, symObjAddr: 0x864, symBinAddr: 0x10000104C, symSize: 0x70 }
  - { offset: 0x22850, size: 0x8, addend: 0x0, symName: __Z5solvev, symObjAddr: 0x420, symBinAddr: 0x100000C08, symSize: 0x444 }
  - { offset: 0x22AA5, size: 0x8, addend: 0x0, symName: __ZNSt13unordered_mapIxi11custom_hashSt8equal_toIxESaISt4pairIKxiEEEC1Ev, symObjAddr: 0x400, symBinAddr: 0x100000BE8, symSize: 0x20 }
  - { offset: 0x22AE5, size: 0x8, addend: 0x0, symName: __ZNSt10_HashtableIxSt4pairIKxiESaIS2_ENSt8__detail10_Select1stESt8equal_toIxE11custom_hashNS4_18_Mod_range_hashingENS4_20_Default_ranged_hashENS4_20_Prime_rehash_policyENS4_17_Hashtable_traitsILb1ELb0ELb1EEEEC1Ev, symObjAddr: 0x390, symBinAddr: 0x100000B78, symSize: 0x70 }
  - { offset: 0x22B33, size: 0x8, addend: 0x0, symName: __ZNSt8__detail16_Hashtable_allocISaINS_10_Hash_nodeISt4pairIKxiELb1EEEEED2Ev, symObjAddr: 0x370, symBinAddr: 0x100000B58, symSize: 0x20 }
  - { offset: 0x22B73, size: 0x8, addend: 0x0, symName: __ZNSt8__detail16_Hashtable_allocISaINS_10_Hash_nodeISt4pairIKxiELb1EEEEEC2Ev, symObjAddr: 0x350, symBinAddr: 0x100000B38, symSize: 0x20 }
  - { offset: 0x22BC1, size: 0x8, addend: 0x0, symName: __ZNSt8__detail21_Hashtable_ebo_helperILi0ESaINS_10_Hash_nodeISt4pairIKxiELb1EEEELb1EED2Ev, symObjAddr: 0x324, symBinAddr: 0x100000B0C, symSize: 0x2C }
  - { offset: 0x22C25, size: 0x8, addend: 0x0, symName: __ZNSt8__detail15_Hashtable_baseIxSt4pairIKxiENS_10_Select1stESt8equal_toIxE11custom_hashNS_18_Mod_range_hashingENS_20_Default_ranged_hashENS_17_Hashtable_traitsILb1ELb0ELb1EEEEC2Ev, symObjAddr: 0x2FC, symBinAddr: 0x100000AE4, symSize: 0x28 }
  - { offset: 0x22C65, size: 0x8, addend: 0x0, symName: __ZNSt8__detail15_Hash_code_baseIxSt4pairIKxiENS_10_Select1stE11custom_hashNS_18_Mod_range_hashingENS_20_Default_ranged_hashELb1EEC2Ev, symObjAddr: 0x2DC, symBinAddr: 0x100000AC4, symSize: 0x20 }
  - { offset: 0x22C8B, size: 0x8, addend: 0x0, symName: __ZNK11custom_hashclEy, symObjAddr: 0x228, symBinAddr: 0x100000A10, symSize: 0xB4 }
  - { offset: 0x22CCD, size: 0x8, addend: 0x0, symName: __ZZNK11custom_hashclEyE12FIXED_RANDOM, symObjAddr: 0x2B38, symBinAddr: 0x10000C000, symSize: 0x0 }
  - { offset: 0x22CDC, size: 0x8, addend: 0x0, symName: __ZN11custom_hash10splitmix64Ey, symObjAddr: 0x19C, symBinAddr: 0x100000984, symSize: 0x8C }
  - { offset: 0x22D09, size: 0x8, addend: 0x0, symName: __ZNKSt6chrono8durationIxSt5ratioILl1ELl1000000000EEE5countEv, symObjAddr: 0x184, symBinAddr: 0x10000096C, symSize: 0x18 }
  - { offset: 0x22D2F, size: 0x8, addend: 0x0, symName: __ZSt3minImERKT_S2_S2_, symObjAddr: 0x14C, symBinAddr: 0x100000934, symSize: 0x38 }
  - { offset: 0x22D75, size: 0x8, addend: 0x0, symName: __ZNSt8__detail20_Prime_rehash_policy8_M_resetEm, symObjAddr: 0x128, symBinAddr: 0x100000910, symSize: 0x24 }
  - { offset: 0x22DB0, size: 0x8, addend: 0x0, symName: __ZNKSt8__detail20_Prime_rehash_policy8_M_stateEv, symObjAddr: 0x110, symBinAddr: 0x1000008F8, symSize: 0x18 }
  - { offset: 0x22DDA, size: 0x8, addend: 0x0, symName: __ZNKSt8__detail20_Prime_rehash_policy19_M_bkt_for_elementsEm, symObjAddr: 0xD8, symBinAddr: 0x1000008C0, symSize: 0x38 }
  - { offset: 0x22E3D, size: 0x8, addend: 0x0, symName: __ZNSt8__detail20_Prime_rehash_policyC1Ef, symObjAddr: 0xAC, symBinAddr: 0x100000894, symSize: 0x2C }
  - { offset: 0x22E6C, size: 0x8, addend: 0x0, symName: __ZNKSt8__detail18_Mod_range_hashingclEmm, symObjAddr: 0x7C, symBinAddr: 0x100000864, symSize: 0x30 }
  - { offset: 0x22ED2, size: 0x8, addend: 0x0, symName: __ZNSt8__detail15_Hash_node_baseC1Ev, symObjAddr: 0x60, symBinAddr: 0x100000848, symSize: 0x1C }
  - { offset: 0x22EFC, size: 0x8, addend: 0x0, symName: __ZNSt8__detail15_Hash_node_baseC2Ev, symObjAddr: 0x44, symBinAddr: 0x10000082C, symSize: 0x1C }
  - { offset: 0x22F25, size: 0x8, addend: 0x0, symName: __ZdlPvS_, symObjAddr: 0x2C, symBinAddr: 0x100000814, symSize: 0x18 }
  - { offset: 0x22F5B, size: 0x8, addend: 0x0, symName: __ZnwmPv, symObjAddr: 0x14, symBinAddr: 0x1000007FC, symSize: 0x18 }
  - { offset: 0x22F8D, size: 0x8, addend: 0x0, symName: __ZSt17__size_to_integerm, symObjAddr: 0x0, symBinAddr: 0x1000007E8, symSize: 0x14 }
...
