---
triple:          'arm64-apple-darwin'
binary-path:     '/Users/mengchengxi/Documents/code/C++C/competition/The Robotic Rush1500'
relocations:
  - { offset: 0x1DC06, size: 0x8, addend: 0x0, symName: __ZStL8__ioinit, symObjAddr: 0x940C6, symBinAddr: 0x100010000, symSize: 0x0 }
  - { offset: 0x1DFE9, size: 0x8, addend: 0x0, symName: __ZL3INF, symObjAddr: 0x5444, symBinAddr: 0x1000065C4, symSize: 0x0 }
  - { offset: 0x1E000, size: 0x8, addend: 0x0, symName: __ZL3mod, symObjAddr: 0x5448, symBinAddr: 0x1000065C8, symSize: 0x0 }
  - { offset: 0x1E38A, size: 0x8, addend: 0x0, symName: __GLOBAL__sub_I_The_Robotic_Rush1500.cpp, symObjAddr: 0x5588, symBinAddr: 0x100005BC8, symSize: 0x14 }
  - { offset: 0x1E3A2, size: 0x8, addend: 0x0, symName: __Z41__static_initialization_and_destruction_0v, symObjAddr: 0x554C, symBinAddr: 0x100005B8C, symSize: 0x3C }
  - { offset: 0x1E3BA, size: 0x8, addend: 0x0, symName: __ZNSt11__copy_moveILb1ELb0ESt26random_access_iterator_tagE12__assign_oneIiiEEvPT_PT0_, symObjAddr: 0x5414, symBinAddr: 0x100005B5C, symSize: 0x30 }
  - { offset: 0x1E40B, size: 0x8, addend: 0x0, symName: __ZN9__gnu_cxx5__ops14_Iter_comp_valIZ5solvevEUlRKSt4pairIiiES5_E_EclINS_17__normal_iteratorIPS3_St6vectorIS3_SaIS3_EEEES3_EEbT_RT0_, symObjAddr: 0x53D4, symBinAddr: 0x100005B1C, symSize: 0x40 }
  - { offset: 0x1E463, size: 0x8, addend: 0x0, symName: __ZNSt20__copy_move_backwardILb1ELb0ESt26random_access_iterator_tagE13__copy_move_bIPSt4pairIiiES5_EET0_T_S7_S6_, symObjAddr: 0x5358, symBinAddr: 0x100005AA0, symSize: 0x7C }
  - { offset: 0x1E4E1, size: 0x8, addend: 0x0, symName: __ZNK9__gnu_cxx5__ops14_Iter_less_valclINS_17__normal_iteratorIPSt4pairIiiESt6vectorIS5_SaIS5_EEEES5_EEbT_RT0_, symObjAddr: 0x532C, symBinAddr: 0x100005A74, symSize: 0x2C }
  - { offset: 0x1E539, size: 0x8, addend: 0x0, symName: __ZNSt20__copy_move_backwardILb1ELb1ESt26random_access_iterator_tagE13__copy_move_bIiiEEPT0_PT_S6_S4_, symObjAddr: 0x5280, symBinAddr: 0x1000059C8, symSize: 0xAC }
  - { offset: 0x1E5AC, size: 0x8, addend: 0x0, symName: __ZNK9__gnu_cxx5__ops14_Iter_less_valclINS_17__normal_iteratorIPiSt6vectorIiSaIiEEEEiEEbT_RT0_, symObjAddr: 0x5244, symBinAddr: 0x10000598C, symSize: 0x3C }
  - { offset: 0x1E604, size: 0x8, addend: 0x0, symName: __ZSt9__fill_a1IPiiEN9__gnu_cxx11__enable_ifIXsrSt11__is_scalarIT0_E7__valueEvE6__typeET_S8_RKS4_, symObjAddr: 0x51EC, symBinAddr: 0x100005934, symSize: 0x58 }
  - { offset: 0x1E679, size: 0x8, addend: 0x0, symName: __ZSt11__push_heapIN9__gnu_cxx17__normal_iteratorIPSt4pairIiiESt6vectorIS3_SaIS3_EEEElS3_NS0_5__ops14_Iter_comp_valIZ5solvevEUlRKS3_SC_E_EEEvT_T0_SG_T1_RT2_, symObjAddr: 0x50C0, symBinAddr: 0x100005808, symSize: 0x12C }
  - { offset: 0x1E73E, size: 0x8, addend: 0x0, symName: __ZN9__gnu_cxx5__ops14_Iter_comp_valIZ5solvevEUlRKSt4pairIiiES5_E_EC1EONS0_15_Iter_comp_iterIS6_EE, symObjAddr: 0x509C, symBinAddr: 0x1000057E4, symSize: 0x24 }
  - { offset: 0x1E769, size: 0x8, addend: 0x0, symName: __ZSt12__niter_baseIPSt4pairIiiEET_S3_, symObjAddr: 0x5088, symBinAddr: 0x1000057D0, symSize: 0x14 }
  - { offset: 0x1E79C, size: 0x8, addend: 0x0, symName: __ZSt23__copy_move_backward_a2ILb1EPSt4pairIiiES2_ET1_T0_S4_S3_, symObjAddr: 0x505C, symBinAddr: 0x1000057A4, symSize: 0x2C }
  - { offset: 0x1E808, size: 0x8, addend: 0x0, symName: __ZNSt4pairIiiE4swapERS0_, symObjAddr: 0x5018, symBinAddr: 0x100005760, symSize: 0x44 }
  - { offset: 0x1E845, size: 0x8, addend: 0x0, symName: __ZSt11__push_heapIN9__gnu_cxx17__normal_iteratorIPSt4pairIiiESt6vectorIS3_SaIS3_EEEElS3_NS0_5__ops14_Iter_less_valEEvT_T0_SC_T1_RT2_, symObjAddr: 0x4EEC, symBinAddr: 0x100005634, symSize: 0x12C }
  - { offset: 0x1E8E3, size: 0x8, addend: 0x0, symName: __ZSt12__niter_baseIPiET_S1_, symObjAddr: 0x4ED8, symBinAddr: 0x100005620, symSize: 0x14 }
  - { offset: 0x1E916, size: 0x8, addend: 0x0, symName: __ZSt23__copy_move_backward_a2ILb1EPiS0_ET1_T0_S2_S1_, symObjAddr: 0x4EAC, symBinAddr: 0x1000055F4, symSize: 0x2C }
  - { offset: 0x1E97E, size: 0x8, addend: 0x0, symName: __ZSt11__push_heapIN9__gnu_cxx17__normal_iteratorIPiSt6vectorIiSaIiEEEEliNS0_5__ops14_Iter_less_valEEvT_T0_SA_T1_RT2_, symObjAddr: 0x4D88, symBinAddr: 0x1000054D0, symSize: 0x124 }
  - { offset: 0x1EA29, size: 0x8, addend: 0x0, symName: __ZSt4moveIRN9__gnu_cxx5__ops15_Iter_less_iterEEONSt16remove_referenceIT_E4typeEOS5_, symObjAddr: 0x4D74, symBinAddr: 0x1000054BC, symSize: 0x14 }
  - { offset: 0x1EA5B, size: 0x8, addend: 0x0, symName: __ZSt8__fill_aIPiiEvT_S1_RKT0_, symObjAddr: 0x4D44, symBinAddr: 0x10000548C, symSize: 0x30 }
  - { offset: 0x1EAB9, size: 0x8, addend: 0x0, symName: __ZSt13__adjust_heapIN9__gnu_cxx17__normal_iteratorIPSt4pairIiiESt6vectorIS3_SaIS3_EEEElS3_NS0_5__ops15_Iter_comp_iterIZ5solvevEUlRKS3_SC_E_EEEvT_T0_SG_T1_T2_, symObjAddr: 0x4B6C, symBinAddr: 0x1000052B4, symSize: 0x1D8 }
  - { offset: 0x1EB7B, size: 0x8, addend: 0x0, symName: __ZSt12__niter_wrapIN9__gnu_cxx17__normal_iteratorIPSt4pairIiiESt6vectorIS3_SaIS3_EEEES4_ET_S9_T0_, symObjAddr: 0x4B24, symBinAddr: 0x10000526C, symSize: 0x48 }
  - { offset: 0x1EBC8, size: 0x8, addend: 0x0, symName: __ZSt23__copy_move_backward_a1ILb1EPSt4pairIiiES2_ET1_T0_S4_S3_, symObjAddr: 0x4AF8, symBinAddr: 0x100005240, symSize: 0x2C }
  - { offset: 0x1EC30, size: 0x8, addend: 0x0, symName: __ZSt12__niter_baseIPSt4pairIiiESt6vectorIS1_SaIS1_EEET_N9__gnu_cxx17__normal_iteratorIS6_T0_EE, symObjAddr: 0x4AD8, symBinAddr: 0x100005220, symSize: 0x20 }
  - { offset: 0x1EC6C, size: 0x8, addend: 0x0, symName: __ZSt4swapIiiENSt9enable_ifIXsrSt6__and_IJSt14__is_swappableIT_ES2_IT0_EEE5valueEvE4typeERSt4pairIS3_S5_ESC_, symObjAddr: 0x4AB0, symBinAddr: 0x1000051F8, symSize: 0x28 }
  - { offset: 0x1ECB9, size: 0x8, addend: 0x0, symName: __ZSt13__adjust_heapIN9__gnu_cxx17__normal_iteratorIPSt4pairIiiESt6vectorIS3_SaIS3_EEEElS3_NS0_5__ops15_Iter_less_iterEEvT_T0_SC_T1_T2_, symObjAddr: 0x48D8, symBinAddr: 0x100005020, symSize: 0x1D8 }
  - { offset: 0x1ED81, size: 0x8, addend: 0x0, symName: __ZSt7forwardIRKSt4pairIiiEEOT_RNSt16remove_referenceIS4_E4typeE, symObjAddr: 0x48C4, symBinAddr: 0x10000500C, symSize: 0x14 }
  - { offset: 0x1EDB7, size: 0x8, addend: 0x0, symName: __ZNK9__gnu_cxx17__normal_iteratorIPKSt4pairIiiESt6vectorIS2_SaIS2_EEE4baseEv, symObjAddr: 0x48B0, symBinAddr: 0x100004FF8, symSize: 0x14 }
  - { offset: 0x1EE0D, size: 0x8, addend: 0x0, symName: __ZNSt4pairIiiEC1IiiLb1EEEv, symObjAddr: 0x488C, symBinAddr: 0x100004FD4, symSize: 0x24 }
  - { offset: 0x1EE41, size: 0x8, addend: 0x0, symName: __ZSt12__niter_wrapIN9__gnu_cxx17__normal_iteratorIPiSt6vectorIiSaIiEEEES2_ET_S7_T0_, symObjAddr: 0x4844, symBinAddr: 0x100004F8C, symSize: 0x48 }
  - { offset: 0x1EE8E, size: 0x8, addend: 0x0, symName: __ZSt23__copy_move_backward_a1ILb1EPiS0_ET1_T0_S2_S1_, symObjAddr: 0x4818, symBinAddr: 0x100004F60, symSize: 0x2C }
  - { offset: 0x1EEF6, size: 0x8, addend: 0x0, symName: __ZSt12__niter_baseIPiSt6vectorIiSaIiEEET_N9__gnu_cxx17__normal_iteratorIS4_T0_EE, symObjAddr: 0x47F8, symBinAddr: 0x100004F40, symSize: 0x20 }
  - { offset: 0x1EF32, size: 0x8, addend: 0x0, symName: __ZSt4swapIiENSt9enable_ifIXsrSt6__and_IJSt6__not_ISt15__is_tuple_likeIT_EESt21is_move_constructibleIS4_ESt18is_move_assignableIS4_EEE5valueEvE4typeERS4_SE_, symObjAddr: 0x47A4, symBinAddr: 0x100004EEC, symSize: 0x54 }
  - { offset: 0x1EF84, size: 0x8, addend: 0x0, symName: __ZSt13__adjust_heapIN9__gnu_cxx17__normal_iteratorIPiSt6vectorIiSaIiEEEEliNS0_5__ops15_Iter_less_iterEEvT_T0_SA_T1_T2_, symObjAddr: 0x45D0, symBinAddr: 0x100004D18, symSize: 0x1D4 }
  - { offset: 0x1F046, size: 0x8, addend: 0x0, symName: __ZSt10__fill_n_aIPimiET_S1_T0_RKT1_St26random_access_iterator_tag, symObjAddr: 0x456C, symBinAddr: 0x100004CB4, symSize: 0x64 }
  - { offset: 0x1F0D0, size: 0x8, addend: 0x0, symName: __ZN9__gnu_cxx5__ops14_Val_comp_iterIZ5solvevEUlRKSt4pairIiiES5_E_EclIS3_NS_17__normal_iteratorIPS3_St6vectorIS3_SaIS3_EEEEEEbRT_T0_, symObjAddr: 0x452C, symBinAddr: 0x100004C74, symSize: 0x40 }
  - { offset: 0x1F14F, size: 0x8, addend: 0x0, symName: __ZN9__gnu_cxx5__ops14_Val_comp_iterIZ5solvevEUlRKSt4pairIiiES5_E_EC1EONS0_15_Iter_comp_iterIS6_EE, symObjAddr: 0x4508, symBinAddr: 0x100004C50, symSize: 0x24 }
  - { offset: 0x1F187, size: 0x8, addend: 0x0, symName: __ZSt4moveIRN9__gnu_cxx5__ops15_Iter_comp_iterIZ5solvevEUlRKSt4pairIiiES6_E_EEEONSt16remove_referenceIT_E4typeEOSB_, symObjAddr: 0x44F4, symBinAddr: 0x100004C3C, symSize: 0x14 }
  - { offset: 0x1F1B9, size: 0x8, addend: 0x0, symName: __ZSt10__pop_heapIN9__gnu_cxx17__normal_iteratorIPSt4pairIiiESt6vectorIS3_SaIS3_EEEENS0_5__ops15_Iter_comp_iterIZ5solvevEUlRKS3_SC_E_EEEvT_SF_SF_RT0_, symObjAddr: 0x445C, symBinAddr: 0x100004BA4, symSize: 0x98 }
  - { offset: 0x1F24F, size: 0x8, addend: 0x0, symName: __ZSt11__make_heapIN9__gnu_cxx17__normal_iteratorIPSt4pairIiiESt6vectorIS3_SaIS3_EEEENS0_5__ops15_Iter_comp_iterIZ5solvevEUlRKS3_SC_E_EEEvT_SF_RT0_, symObjAddr: 0x4380, symBinAddr: 0x100004AC8, symSize: 0xDC }
  - { offset: 0x1F315, size: 0x8, addend: 0x0, symName: __ZNK9__gnu_cxx5__ops14_Val_less_iterclISt4pairIiiENS_17__normal_iteratorIPS4_St6vectorIS4_SaIS4_EEEEEEbRT_T0_, symObjAddr: 0x4350, symBinAddr: 0x100004A98, symSize: 0x30 }
  - { offset: 0x1F36D, size: 0x8, addend: 0x0, symName: __ZSt22__copy_move_backward_aILb1EN9__gnu_cxx17__normal_iteratorIPSt4pairIiiESt6vectorIS3_SaIS3_EEEES8_ET1_T0_SA_S9_, symObjAddr: 0x42F0, symBinAddr: 0x100004A38, symSize: 0x60 }
  - { offset: 0x1F3D5, size: 0x8, addend: 0x0, symName: __ZSt12__miter_baseIN9__gnu_cxx17__normal_iteratorIPSt4pairIiiESt6vectorIS3_SaIS3_EEEEET_S9_, symObjAddr: 0x42DC, symBinAddr: 0x100004A24, symSize: 0x14 }
  - { offset: 0x1F408, size: 0x8, addend: 0x0, symName: __ZStltIiiEbRKSt4pairIT_T0_ES5_, symObjAddr: 0x4274, symBinAddr: 0x1000049BC, symSize: 0x68 }
  - { offset: 0x1F455, size: 0x8, addend: 0x0, symName: __ZSt9iter_swapIN9__gnu_cxx17__normal_iteratorIPSt4pairIiiESt6vectorIS3_SaIS3_EEEES8_EvT_T0_, symObjAddr: 0x4230, symBinAddr: 0x100004978, symSize: 0x44 }
  - { offset: 0x1F4A4, size: 0x8, addend: 0x0, symName: __ZN9__gnu_cxx17__normal_iteratorIPSt4pairIiiESt6vectorIS2_SaIS2_EEEmmEv, symObjAddr: 0x4208, symBinAddr: 0x100004950, symSize: 0x28 }
  - { offset: 0x1F4CA, size: 0x8, addend: 0x0, symName: __ZSt10__pop_heapIN9__gnu_cxx17__normal_iteratorIPSt4pairIiiESt6vectorIS3_SaIS3_EEEENS0_5__ops15_Iter_less_iterEEvT_SB_SB_RT0_, symObjAddr: 0x4178, symBinAddr: 0x1000048C0, symSize: 0x90 }
  - { offset: 0x1F566, size: 0x8, addend: 0x0, symName: __ZN9__gnu_cxxltIPSt4pairIiiESt6vectorIS2_SaIS2_EEEEbRKNS_17__normal_iteratorIT_T0_EESC_, symObjAddr: 0x4134, symBinAddr: 0x10000487C, symSize: 0x44 }
  - { offset: 0x1F5B3, size: 0x8, addend: 0x0, symName: __ZSt11__make_heapIN9__gnu_cxx17__normal_iteratorIPSt4pairIiiESt6vectorIS3_SaIS3_EEEENS0_5__ops15_Iter_less_iterEEvT_SB_RT0_, symObjAddr: 0x4058, symBinAddr: 0x1000047A0, symSize: 0xDC }
  - { offset: 0x1F66A, size: 0x8, addend: 0x0, symName: __ZSt10_ConstructISt4pairIiiEJRKS1_EEvPT_DpOT0_, symObjAddr: 0x4010, symBinAddr: 0x100004758, symSize: 0x48 }
  - { offset: 0x1F6BA, size: 0x8, addend: 0x0, symName: __ZNK9__gnu_cxx17__normal_iteratorIPKSt4pairIiiESt6vectorIS2_SaIS2_EEEdeEv, symObjAddr: 0x3FF8, symBinAddr: 0x100004740, symSize: 0x18 }
  - { offset: 0x1F6E4, size: 0x8, addend: 0x0, symName: __ZN9__gnu_cxx17__normal_iteratorIPKSt4pairIiiESt6vectorIS2_SaIS2_EEEppEv, symObjAddr: 0x3FD0, symBinAddr: 0x100004718, symSize: 0x28 }
  - { offset: 0x1F710, size: 0x8, addend: 0x0, symName: __ZN9__gnu_cxxneIPKSt4pairIiiESt6vectorIS2_SaIS2_EEEEbRKNS_17__normal_iteratorIT_T0_EESD_, symObjAddr: 0x3F8C, symBinAddr: 0x1000046D4, symSize: 0x44 }
  - { offset: 0x1F75D, size: 0x8, addend: 0x0, symName: __ZSt10_ConstructISt4pairIiiEJEEvPT_DpOT0_, symObjAddr: 0x3F60, symBinAddr: 0x1000046A8, symSize: 0x2C }
  - { offset: 0x1F799, size: 0x8, addend: 0x0, symName: __ZSt11__addressofISt4pairIiiEEPT_RS2_, symObjAddr: 0x3F4C, symBinAddr: 0x100004694, symSize: 0x14 }
  - { offset: 0x1F7CF, size: 0x8, addend: 0x0, symName: __ZNSt15__new_allocatorISt4pairIiiEE8allocateEmPKv, symObjAddr: 0x3ED0, symBinAddr: 0x100004618, symSize: 0x7C }
  - { offset: 0x1F85B, size: 0x8, addend: 0x0, symName: __ZNK9__gnu_cxx5__ops14_Val_less_iterclIiNS_17__normal_iteratorIPiSt6vectorIiSaIiEEEEEEbRT_T0_, symObjAddr: 0x3E8C, symBinAddr: 0x1000045D4, symSize: 0x44 }
  - { offset: 0x1F8B3, size: 0x8, addend: 0x0, symName: __ZSt22__copy_move_backward_aILb1EN9__gnu_cxx17__normal_iteratorIPiSt6vectorIiSaIiEEEES6_ET1_T0_S8_S7_, symObjAddr: 0x3E2C, symBinAddr: 0x100004574, symSize: 0x60 }
  - { offset: 0x1F91B, size: 0x8, addend: 0x0, symName: __ZSt12__miter_baseIN9__gnu_cxx17__normal_iteratorIPiSt6vectorIiSaIiEEEEET_S7_, symObjAddr: 0x3E18, symBinAddr: 0x100004560, symSize: 0x14 }
  - { offset: 0x1F94E, size: 0x8, addend: 0x0, symName: __ZSt9iter_swapIN9__gnu_cxx17__normal_iteratorIPiSt6vectorIiSaIiEEEES6_EvT_T0_, symObjAddr: 0x3DD4, symBinAddr: 0x10000451C, symSize: 0x44 }
  - { offset: 0x1F999, size: 0x8, addend: 0x0, symName: __ZSt10__pop_heapIN9__gnu_cxx17__normal_iteratorIPiSt6vectorIiSaIiEEEENS0_5__ops15_Iter_less_iterEEvT_S9_S9_RT0_, symObjAddr: 0x3D44, symBinAddr: 0x10000448C, symSize: 0x90 }
  - { offset: 0x1FA35, size: 0x8, addend: 0x0, symName: __ZN9__gnu_cxxltIPiSt6vectorIiSaIiEEEEbRKNS_17__normal_iteratorIT_T0_EESA_, symObjAddr: 0x3D00, symBinAddr: 0x100004448, symSize: 0x44 }
  - { offset: 0x1FA82, size: 0x8, addend: 0x0, symName: __ZSt11__make_heapIN9__gnu_cxx17__normal_iteratorIPiSt6vectorIiSaIiEEEENS0_5__ops15_Iter_less_iterEEvT_S9_RT0_, symObjAddr: 0x3C20, symBinAddr: 0x100004368, symSize: 0xE0 }
  - { offset: 0x1FB39, size: 0x8, addend: 0x0, symName: __ZSt6fill_nIPimiET_S1_T0_RKT1_, symObjAddr: 0x3BD8, symBinAddr: 0x100004320, symSize: 0x48 }
  - { offset: 0x1FBC1, size: 0x8, addend: 0x0, symName: __ZSt10_ConstructIiJEEvPT_DpOT0_, symObjAddr: 0x3BAC, symBinAddr: 0x1000042F4, symSize: 0x2C }
  - { offset: 0x1FBFD, size: 0x8, addend: 0x0, symName: __ZSt11__addressofIiEPT_RS0_, symObjAddr: 0x3B98, symBinAddr: 0x1000042E0, symSize: 0x14 }
  - { offset: 0x1FC33, size: 0x8, addend: 0x0, symName: __ZNSt15__new_allocatorIiE8allocateEmPKv, symObjAddr: 0x3B1C, symBinAddr: 0x100004264, symSize: 0x7C }
  - { offset: 0x1FCBB, size: 0x8, addend: 0x0, symName: __ZSt25__unguarded_linear_insertIN9__gnu_cxx17__normal_iteratorIPSt4pairIiiESt6vectorIS3_SaIS3_EEEENS0_5__ops14_Val_comp_iterIZ5solvevEUlRKS3_SC_E_EEEvT_T0_, symObjAddr: 0x3A68, symBinAddr: 0x1000041B0, symSize: 0xB4 }
  - { offset: 0x1FD2A, size: 0x8, addend: 0x0, symName: __ZN9__gnu_cxx5__ops15__val_comp_iterIZ5solvevEUlRKSt4pairIiiES5_E_EENS0_14_Val_comp_iterIT_EENS0_15_Iter_comp_iterIS8_EE, symObjAddr: 0x3A30, symBinAddr: 0x100004178, symSize: 0x38 }
  - { offset: 0x1FD60, size: 0x8, addend: 0x0, symName: __ZN9__gnu_cxx5__ops15_Iter_comp_iterIZ5solvevEUlRKSt4pairIiiES5_E_EclINS_17__normal_iteratorIPS3_St6vectorIS3_SaIS3_EEEESE_EEbT_T0_, symObjAddr: 0x39E4, symBinAddr: 0x10000412C, symSize: 0x4C }
  - { offset: 0x1FDB8, size: 0x8, addend: 0x0, symName: __ZSt21__unguarded_partitionIN9__gnu_cxx17__normal_iteratorIPSt4pairIiiESt6vectorIS3_SaIS3_EEEENS0_5__ops15_Iter_comp_iterIZ5solvevEUlRKS3_SC_E_EEET_SF_SF_SF_T0_, symObjAddr: 0x392C, symBinAddr: 0x100004074, symSize: 0xB8 }
  - { offset: 0x1FE27, size: 0x8, addend: 0x0, symName: __ZSt22__move_median_to_firstIN9__gnu_cxx17__normal_iteratorIPSt4pairIiiESt6vectorIS3_SaIS3_EEEENS0_5__ops15_Iter_comp_iterIZ5solvevEUlRKS3_SC_E_EEEvT_SF_SF_SF_T0_, symObjAddr: 0x381C, symBinAddr: 0x100003F64, symSize: 0x110 }
  - { offset: 0x1FEA2, size: 0x8, addend: 0x0, symName: __ZSt11__sort_heapIN9__gnu_cxx17__normal_iteratorIPSt4pairIiiESt6vectorIS3_SaIS3_EEEENS0_5__ops15_Iter_comp_iterIZ5solvevEUlRKS3_SC_E_EEEvT_SF_RT0_, symObjAddr: 0x37B4, symBinAddr: 0x100003EFC, symSize: 0x68 }
  - { offset: 0x1FF00, size: 0x8, addend: 0x0, symName: __ZSt13__heap_selectIN9__gnu_cxx17__normal_iteratorIPSt4pairIiiESt6vectorIS3_SaIS3_EEEENS0_5__ops15_Iter_comp_iterIZ5solvevEUlRKS3_SC_E_EEEvT_SF_SF_T0_, symObjAddr: 0x3718, symBinAddr: 0x100003E60, symSize: 0x9C }
  - { offset: 0x1FF93, size: 0x8, addend: 0x0, symName: __ZSt25__unguarded_linear_insertIN9__gnu_cxx17__normal_iteratorIPSt4pairIiiESt6vectorIS3_SaIS3_EEEENS0_5__ops14_Val_less_iterEEvT_T0_, symObjAddr: 0x3664, symBinAddr: 0x100003DAC, symSize: 0xB4 }
  - { offset: 0x20002, size: 0x8, addend: 0x0, symName: __ZSt13move_backwardIN9__gnu_cxx17__normal_iteratorIPSt4pairIiiESt6vectorIS3_SaIS3_EEEES8_ET0_T_SA_S9_, symObjAddr: 0x361C, symBinAddr: 0x100003D64, symSize: 0x48 }
  - { offset: 0x20067, size: 0x8, addend: 0x0, symName: __ZSt4moveIRSt4pairIiiEEONSt16remove_referenceIT_E4typeEOS4_, symObjAddr: 0x3608, symBinAddr: 0x100003D50, symSize: 0x14 }
  - { offset: 0x2009D, size: 0x8, addend: 0x0, symName: __ZNK9__gnu_cxx17__normal_iteratorIPSt4pairIiiESt6vectorIS2_SaIS2_EEEdeEv, symObjAddr: 0x35F0, symBinAddr: 0x100003D38, symSize: 0x18 }
  - { offset: 0x200D2, size: 0x8, addend: 0x0, symName: __ZNK9__gnu_cxx5__ops15_Iter_less_iterclINS_17__normal_iteratorIPSt4pairIiiESt6vectorIS5_SaIS5_EEEESA_EEbT_T0_, symObjAddr: 0x35AC, symBinAddr: 0x100003CF4, symSize: 0x44 }
  - { offset: 0x2012E, size: 0x8, addend: 0x0, symName: __ZN9__gnu_cxx17__normal_iteratorIPSt4pairIiiESt6vectorIS2_SaIS2_EEEppEv, symObjAddr: 0x3584, symBinAddr: 0x100003CCC, symSize: 0x28 }
  - { offset: 0x20154, size: 0x8, addend: 0x0, symName: __ZN9__gnu_cxxeqIPSt4pairIiiESt6vectorIS2_SaIS2_EEEEbRKNS_17__normal_iteratorIT_T0_EESC_, symObjAddr: 0x3540, symBinAddr: 0x100003C88, symSize: 0x44 }
  - { offset: 0x201A1, size: 0x8, addend: 0x0, symName: __ZSt21__unguarded_partitionIN9__gnu_cxx17__normal_iteratorIPSt4pairIiiESt6vectorIS3_SaIS3_EEEENS0_5__ops15_Iter_less_iterEET_SB_SB_SB_T0_, symObjAddr: 0x3488, symBinAddr: 0x100003BD0, symSize: 0xB8 }
  - { offset: 0x20210, size: 0x8, addend: 0x0, symName: __ZSt22__move_median_to_firstIN9__gnu_cxx17__normal_iteratorIPSt4pairIiiESt6vectorIS3_SaIS3_EEEENS0_5__ops15_Iter_less_iterEEvT_SB_SB_SB_T0_, symObjAddr: 0x3378, symBinAddr: 0x100003AC0, symSize: 0x110 }
  - { offset: 0x2028F, size: 0x8, addend: 0x0, symName: __ZNK9__gnu_cxx17__normal_iteratorIPSt4pairIiiESt6vectorIS2_SaIS2_EEEmiEl, symObjAddr: 0x3334, symBinAddr: 0x100003A7C, symSize: 0x44 }
  - { offset: 0x202C6, size: 0x8, addend: 0x0, symName: __ZSt11__sort_heapIN9__gnu_cxx17__normal_iteratorIPSt4pairIiiESt6vectorIS3_SaIS3_EEEENS0_5__ops15_Iter_less_iterEEvT_SB_RT0_, symObjAddr: 0x32CC, symBinAddr: 0x100003A14, symSize: 0x68 }
  - { offset: 0x20324, size: 0x8, addend: 0x0, symName: __ZSt13__heap_selectIN9__gnu_cxx17__normal_iteratorIPSt4pairIiiESt6vectorIS3_SaIS3_EEEENS0_5__ops15_Iter_less_iterEEvT_SB_SB_T0_, symObjAddr: 0x3230, symBinAddr: 0x100003978, symSize: 0x9C }
  - { offset: 0x203B7, size: 0x8, addend: 0x0, symName: __ZSt16__do_uninit_copyIN9__gnu_cxx17__normal_iteratorIPKSt4pairIiiESt6vectorIS3_SaIS3_EEEEPS3_ET0_T_SC_SB_, symObjAddr: 0x31B0, symBinAddr: 0x1000038F8, symSize: 0x80 }
  - { offset: 0x20426, size: 0x8, addend: 0x0, symName: __ZN9__gnu_cxx17__normal_iteratorIPiSt6vectorIiSaIiEEEpLEl, symObjAddr: 0x317C, symBinAddr: 0x1000038C4, symSize: 0x34 }
  - { offset: 0x20461, size: 0x8, addend: 0x0, symName: __ZN9__gnu_cxx17__normal_iteratorIPiSt6vectorIiSaIiEEEmmEv, symObjAddr: 0x3154, symBinAddr: 0x10000389C, symSize: 0x28 }
  - { offset: 0x20487, size: 0x8, addend: 0x0, symName: __ZNSt27__uninitialized_default_n_1ILb0EE18__uninit_default_nIPSt4pairIiiEmEET_S5_T0_, symObjAddr: 0x30CC, symBinAddr: 0x100003814, symSize: 0x88 }
  - { offset: 0x204E9, size: 0x8, addend: 0x0, symName: __ZNSt15__new_allocatorISt4pairIiiEE10deallocateEPS1_m, symObjAddr: 0x309C, symBinAddr: 0x1000037E4, symSize: 0x30 }
  - { offset: 0x20569, size: 0x8, addend: 0x0, symName: __ZSt25__unguarded_linear_insertIN9__gnu_cxx17__normal_iteratorIPiSt6vectorIiSaIiEEEENS0_5__ops14_Val_less_iterEEvT_T0_, symObjAddr: 0x2FF0, symBinAddr: 0x100003738, symSize: 0xAC }
  - { offset: 0x205D8, size: 0x8, addend: 0x0, symName: __ZSt13move_backwardIN9__gnu_cxx17__normal_iteratorIPiSt6vectorIiSaIiEEEES6_ET0_T_S8_S7_, symObjAddr: 0x2FA8, symBinAddr: 0x1000036F0, symSize: 0x48 }
  - { offset: 0x2063D, size: 0x8, addend: 0x0, symName: __ZSt4moveIRiEONSt16remove_referenceIT_E4typeEOS2_, symObjAddr: 0x2F94, symBinAddr: 0x1000036DC, symSize: 0x14 }
  - { offset: 0x20673, size: 0x8, addend: 0x0, symName: __ZNK9__gnu_cxx5__ops15_Iter_less_iterclINS_17__normal_iteratorIPiSt6vectorIiSaIiEEEES8_EEbT_T0_, symObjAddr: 0x2F4C, symBinAddr: 0x100003694, symSize: 0x48 }
  - { offset: 0x206CB, size: 0x8, addend: 0x0, symName: __ZN9__gnu_cxxeqIPiSt6vectorIiSaIiEEEEbRKNS_17__normal_iteratorIT_T0_EESA_, symObjAddr: 0x2F08, symBinAddr: 0x100003650, symSize: 0x44 }
  - { offset: 0x20718, size: 0x8, addend: 0x0, symName: __ZSt21__unguarded_partitionIN9__gnu_cxx17__normal_iteratorIPiSt6vectorIiSaIiEEEENS0_5__ops15_Iter_less_iterEET_S9_S9_S9_T0_, symObjAddr: 0x2E50, symBinAddr: 0x100003598, symSize: 0xB8 }
  - { offset: 0x20787, size: 0x8, addend: 0x0, symName: __ZSt22__move_median_to_firstIN9__gnu_cxx17__normal_iteratorIPiSt6vectorIiSaIiEEEENS0_5__ops15_Iter_less_iterEEvT_S9_S9_S9_T0_, symObjAddr: 0x2D40, symBinAddr: 0x100003488, symSize: 0x110 }
  - { offset: 0x20806, size: 0x8, addend: 0x0, symName: __ZNK9__gnu_cxx17__normal_iteratorIPiSt6vectorIiSaIiEEEmiEl, symObjAddr: 0x2CFC, symBinAddr: 0x100003444, symSize: 0x44 }
  - { offset: 0x2083D, size: 0x8, addend: 0x0, symName: __ZSt11__sort_heapIN9__gnu_cxx17__normal_iteratorIPiSt6vectorIiSaIiEEEENS0_5__ops15_Iter_less_iterEEvT_S9_RT0_, symObjAddr: 0x2C94, symBinAddr: 0x1000033DC, symSize: 0x68 }
  - { offset: 0x2089B, size: 0x8, addend: 0x0, symName: __ZSt13__heap_selectIN9__gnu_cxx17__normal_iteratorIPiSt6vectorIiSaIiEEEENS0_5__ops15_Iter_less_iterEEvT_S9_S9_T0_, symObjAddr: 0x2BF8, symBinAddr: 0x100003340, symSize: 0x9C }
  - { offset: 0x2092E, size: 0x8, addend: 0x0, symName: __ZNSt27__uninitialized_default_n_1ILb1EE18__uninit_default_nIPimEET_S3_T0_, symObjAddr: 0x2B94, symBinAddr: 0x1000032DC, symSize: 0x64 }
  - { offset: 0x209A9, size: 0x8, addend: 0x0, symName: __ZNSt15__new_allocatorIiE10deallocateEPim, symObjAddr: 0x2B64, symBinAddr: 0x1000032AC, symSize: 0x30 }
  - { offset: 0x20A29, size: 0x8, addend: 0x0, symName: __ZSt26__unguarded_insertion_sortIN9__gnu_cxx17__normal_iteratorIPSt4pairIiiESt6vectorIS3_SaIS3_EEEENS0_5__ops15_Iter_comp_iterIZ5solvevEUlRKS3_SC_E_EEEvT_SF_T0_, symObjAddr: 0x2AF8, symBinAddr: 0x100003240, symSize: 0x6C }
  - { offset: 0x20AAB, size: 0x8, addend: 0x0, symName: __ZSt16__insertion_sortIN9__gnu_cxx17__normal_iteratorIPSt4pairIiiESt6vectorIS3_SaIS3_EEEENS0_5__ops15_Iter_comp_iterIZ5solvevEUlRKS3_SC_E_EEEvT_SF_T0_, symObjAddr: 0x2A00, symBinAddr: 0x100003148, symSize: 0xF8 }
  - { offset: 0x20B51, size: 0x8, addend: 0x0, symName: __ZSt27__unguarded_partition_pivotIN9__gnu_cxx17__normal_iteratorIPSt4pairIiiESt6vectorIS3_SaIS3_EEEENS0_5__ops15_Iter_comp_iterIZ5solvevEUlRKS3_SC_E_EEET_SF_SF_T0_, symObjAddr: 0x2964, symBinAddr: 0x1000030AC, symSize: 0x9C }
  - { offset: 0x20BC0, size: 0x8, addend: 0x0, symName: __ZSt14__partial_sortIN9__gnu_cxx17__normal_iteratorIPSt4pairIiiESt6vectorIS3_SaIS3_EEEENS0_5__ops15_Iter_comp_iterIZ5solvevEUlRKS3_SC_E_EEEvT_SF_SF_T0_, symObjAddr: 0x2918, symBinAddr: 0x100003060, symSize: 0x4C }
  - { offset: 0x20C2F, size: 0x8, addend: 0x0, symName: __ZSt26__unguarded_insertion_sortIN9__gnu_cxx17__normal_iteratorIPSt4pairIiiESt6vectorIS3_SaIS3_EEEENS0_5__ops15_Iter_less_iterEEvT_SB_T0_, symObjAddr: 0x28AC, symBinAddr: 0x100002FF4, symSize: 0x6C }
  - { offset: 0x20CB1, size: 0x8, addend: 0x0, symName: __ZSt16__insertion_sortIN9__gnu_cxx17__normal_iteratorIPSt4pairIiiESt6vectorIS3_SaIS3_EEEENS0_5__ops15_Iter_less_iterEEvT_SB_T0_, symObjAddr: 0x27AC, symBinAddr: 0x100002EF4, symSize: 0x100 }
  - { offset: 0x20D5B, size: 0x8, addend: 0x0, symName: __ZNK9__gnu_cxx17__normal_iteratorIPSt4pairIiiESt6vectorIS2_SaIS2_EEEplEl, symObjAddr: 0x276C, symBinAddr: 0x100002EB4, symSize: 0x40 }
  - { offset: 0x20D92, size: 0x8, addend: 0x0, symName: __ZSt27__unguarded_partition_pivotIN9__gnu_cxx17__normal_iteratorIPSt4pairIiiESt6vectorIS3_SaIS3_EEEENS0_5__ops15_Iter_less_iterEET_SB_SB_T0_, symObjAddr: 0x26C8, symBinAddr: 0x100002E10, symSize: 0xA4 }
  - { offset: 0x20E01, size: 0x8, addend: 0x0, symName: __ZSt14__partial_sortIN9__gnu_cxx17__normal_iteratorIPSt4pairIiiESt6vectorIS3_SaIS3_EEEENS0_5__ops15_Iter_less_iterEEvT_SB_SB_T0_, symObjAddr: 0x267C, symBinAddr: 0x100002DC4, symSize: 0x4C }
  - { offset: 0x20E74, size: 0x8, addend: 0x0, symName: __ZNK9__gnu_cxx17__normal_iteratorIPSt4pairIiiESt6vectorIS2_SaIS2_EEE4baseEv, symObjAddr: 0x2668, symBinAddr: 0x100002DB0, symSize: 0x14 }
  - { offset: 0x20E9A, size: 0x8, addend: 0x0, symName: __ZNSt20__uninitialized_copyILb0EE13__uninit_copyIN9__gnu_cxx17__normal_iteratorIPKSt4pairIiiESt6vectorIS5_SaIS5_EEEEPS5_EET0_T_SE_SD_, symObjAddr: 0x263C, symBinAddr: 0x100002D84, symSize: 0x2C }
  - { offset: 0x20EF5, size: 0x8, addend: 0x0, symName: __ZSt9__advanceIN9__gnu_cxx17__normal_iteratorIPiSt6vectorIiSaIiEEEElEvRT_T0_St26random_access_iterator_tag, symObjAddr: 0x2610, symBinAddr: 0x100002D58, symSize: 0x2C }
  - { offset: 0x20F49, size: 0x8, addend: 0x0, symName: __ZNSt12_Destroy_auxILb1EE9__destroyIPSt4pairIiiEEEvT_S5_, symObjAddr: 0x25F8, symBinAddr: 0x100002D40, symSize: 0x18 }
  - { offset: 0x20F7D, size: 0x8, addend: 0x0, symName: __ZSt25__uninitialized_default_nIPSt4pairIiiEmET_S3_T0_, symObjAddr: 0x25CC, symBinAddr: 0x100002D14, symSize: 0x2C }
  - { offset: 0x21011, size: 0x8, addend: 0x0, symName: __ZNSt12_Vector_baseISt4pairIiiESaIS1_EE11_M_allocateEm, symObjAddr: 0x257C, symBinAddr: 0x100002CC4, symSize: 0x50 }
  - { offset: 0x21093, size: 0x8, addend: 0x0, symName: __ZNSt12_Vector_baseISt4pairIiiESaIS1_EE17_Vector_impl_dataC2Ev, symObjAddr: 0x2550, symBinAddr: 0x100002C98, symSize: 0x2C }
  - { offset: 0x210E6, size: 0x8, addend: 0x0, symName: __ZSt26__unguarded_insertion_sortIN9__gnu_cxx17__normal_iteratorIPiSt6vectorIiSaIiEEEENS0_5__ops15_Iter_less_iterEEvT_S9_T0_, symObjAddr: 0x24E4, symBinAddr: 0x100002C2C, symSize: 0x6C }
  - { offset: 0x21168, size: 0x8, addend: 0x0, symName: __ZSt16__insertion_sortIN9__gnu_cxx17__normal_iteratorIPiSt6vectorIiSaIiEEEENS0_5__ops15_Iter_less_iterEEvT_S9_T0_, symObjAddr: 0x23E8, symBinAddr: 0x100002B30, symSize: 0xFC }
  - { offset: 0x21212, size: 0x8, addend: 0x0, symName: __ZNK9__gnu_cxx17__normal_iteratorIPiSt6vectorIiSaIiEEEplEl, symObjAddr: 0x23A8, symBinAddr: 0x100002AF0, symSize: 0x40 }
  - { offset: 0x21249, size: 0x8, addend: 0x0, symName: __ZSt27__unguarded_partition_pivotIN9__gnu_cxx17__normal_iteratorIPiSt6vectorIiSaIiEEEENS0_5__ops15_Iter_less_iterEET_S9_S9_T0_, symObjAddr: 0x2304, symBinAddr: 0x100002A4C, symSize: 0xA4 }
  - { offset: 0x212B8, size: 0x8, addend: 0x0, symName: __ZSt14__partial_sortIN9__gnu_cxx17__normal_iteratorIPiSt6vectorIiSaIiEEEENS0_5__ops15_Iter_less_iterEEvT_S9_S9_T0_, symObjAddr: 0x22B8, symBinAddr: 0x100002A00, symSize: 0x4C }
  - { offset: 0x21327, size: 0x8, addend: 0x0, symName: __ZNSt12_Destroy_auxILb1EE9__destroyIPiEEvT_S3_, symObjAddr: 0x22A0, symBinAddr: 0x1000029E8, symSize: 0x18 }
  - { offset: 0x2135B, size: 0x8, addend: 0x0, symName: __ZSt25__uninitialized_default_nIPimET_S1_T0_, symObjAddr: 0x2274, symBinAddr: 0x1000029BC, symSize: 0x2C }
  - { offset: 0x213EF, size: 0x8, addend: 0x0, symName: __ZNSt12_Vector_baseIiSaIiEE11_M_allocateEm, symObjAddr: 0x2224, symBinAddr: 0x10000296C, symSize: 0x50 }
  - { offset: 0x21471, size: 0x8, addend: 0x0, symName: __ZNSt12_Vector_baseIiSaIiEE17_Vector_impl_dataC2Ev, symObjAddr: 0x21F8, symBinAddr: 0x100002940, symSize: 0x2C }
  - { offset: 0x214C4, size: 0x8, addend: 0x0, symName: __ZSt13__countl_zeroImEiT_, symObjAddr: 0x21A4, symBinAddr: 0x1000028EC, symSize: 0x54 }
  - { offset: 0x21559, size: 0x8, addend: 0x0, symName: __ZSt22__final_insertion_sortIN9__gnu_cxx17__normal_iteratorIPSt4pairIiiESt6vectorIS3_SaIS3_EEEENS0_5__ops15_Iter_comp_iterIZ5solvevEUlRKS3_SC_E_EEEvT_SF_T0_, symObjAddr: 0x2118, symBinAddr: 0x100002860, symSize: 0x8C }
  - { offset: 0x215B7, size: 0x8, addend: 0x0, symName: __ZSt16__introsort_loopIN9__gnu_cxx17__normal_iteratorIPSt4pairIiiESt6vectorIS3_SaIS3_EEEElNS0_5__ops15_Iter_comp_iterIZ5solvevEUlRKS3_SC_E_EEEvT_SF_T0_T1_, symObjAddr: 0x2070, symBinAddr: 0x1000027B8, symSize: 0xA8 }
  - { offset: 0x2167A, size: 0x8, addend: 0x0, symName: __ZN9__gnu_cxx5__ops15_Iter_comp_iterIZ5solvevEUlRKSt4pairIiiES5_E_EC1ES6_, symObjAddr: 0x204C, symBinAddr: 0x100002794, symSize: 0x24 }
  - { offset: 0x216AC, size: 0x8, addend: 0x0, symName: __ZSt4moveIRZ5solvevEUlRKSt4pairIiiES3_E_EONSt16remove_referenceIT_E4typeEOS7_, symObjAddr: 0x2038, symBinAddr: 0x100002780, symSize: 0x14 }
  - { offset: 0x216DE, size: 0x8, addend: 0x0, symName: __ZSt22__final_insertion_sortIN9__gnu_cxx17__normal_iteratorIPSt4pairIiiESt6vectorIS3_SaIS3_EEEENS0_5__ops15_Iter_less_iterEEvT_SB_T0_, symObjAddr: 0x1F9C, symBinAddr: 0x1000026E4, symSize: 0x9C }
  - { offset: 0x2173C, size: 0x8, addend: 0x0, symName: __ZSt16__introsort_loopIN9__gnu_cxx17__normal_iteratorIPSt4pairIiiESt6vectorIS3_SaIS3_EEEElNS0_5__ops15_Iter_less_iterEEvT_SB_T0_T1_, symObjAddr: 0x1EE4, symBinAddr: 0x10000262C, symSize: 0xB8 }
  - { offset: 0x217D8, size: 0x8, addend: 0x0, symName: __ZN9__gnu_cxxmiIPSt4pairIiiESt6vectorIS2_SaIS2_EEEENS_17__normal_iteratorIT_T0_E15difference_typeERKSA_SD_, symObjAddr: 0x1EA4, symBinAddr: 0x1000025EC, symSize: 0x40 }
  - { offset: 0x21825, size: 0x8, addend: 0x0, symName: __ZN9__gnu_cxxneIPSt4pairIiiESt6vectorIS2_SaIS2_EEEEbRKNS_17__normal_iteratorIT_T0_EESC_, symObjAddr: 0x1E60, symBinAddr: 0x1000025A8, symSize: 0x44 }
  - { offset: 0x21872, size: 0x8, addend: 0x0, symName: __ZSt18uninitialized_copyIN9__gnu_cxx17__normal_iteratorIPKSt4pairIiiESt6vectorIS3_SaIS3_EEEEPS3_ET0_T_SC_SB_, symObjAddr: 0x1E2C, symBinAddr: 0x100002574, symSize: 0x34 }
  - { offset: 0x21919, size: 0x8, addend: 0x0, symName: __ZN9__gnu_cxx17__normal_iteratorIPKSt4pairIiiESt6vectorIS2_SaIS2_EEEC1ERKS4_, symObjAddr: 0x1E04, symBinAddr: 0x10000254C, symSize: 0x28 }
  - { offset: 0x2195E, size: 0x8, addend: 0x0, symName: __ZNK9__gnu_cxx5__ops14_Val_less_iterclIKiNS_17__normal_iteratorIPiSt6vectorIiSaIiEEEEEEbRT_T0_, symObjAddr: 0x1DC0, symBinAddr: 0x100002508, symSize: 0x44 }
  - { offset: 0x219BA, size: 0x8, addend: 0x0, symName: __ZN9__gnu_cxx17__normal_iteratorIPiSt6vectorIiSaIiEEEppEv, symObjAddr: 0x1D98, symBinAddr: 0x1000024E0, symSize: 0x28 }
  - { offset: 0x219E4, size: 0x8, addend: 0x0, symName: __ZNK9__gnu_cxx5__ops14_Iter_less_valclINS_17__normal_iteratorIPiSt6vectorIiSaIiEEEEKiEEbT_RT0_, symObjAddr: 0x1D5C, symBinAddr: 0x1000024A4, symSize: 0x3C }
  - { offset: 0x21A7D, size: 0x8, addend: 0x0, symName: __ZSt8_DestroyIPSt4pairIiiEEvT_S3_, symObjAddr: 0x1D34, symBinAddr: 0x10000247C, symSize: 0x28 }
  - { offset: 0x21ABF, size: 0x8, addend: 0x0, symName: __ZSt27__uninitialized_default_n_aIPSt4pairIiiEmS1_ET_S3_T0_RSaIT1_E, symObjAddr: 0x1D0C, symBinAddr: 0x100002454, symSize: 0x28 }
  - { offset: 0x21B22, size: 0x8, addend: 0x0, symName: __ZNSt12_Vector_baseISt4pairIiiESaIS1_EE13_M_deallocateEPS1_m, symObjAddr: 0x1CB4, symBinAddr: 0x1000023FC, symSize: 0x58 }
  - { offset: 0x21BA4, size: 0x8, addend: 0x0, symName: __ZNSt12_Vector_baseISt4pairIiiESaIS1_EE17_M_create_storageEm, symObjAddr: 0x1C54, symBinAddr: 0x10000239C, symSize: 0x60 }
  - { offset: 0x21C06, size: 0x8, addend: 0x0, symName: __ZNSt12_Vector_baseISt4pairIiiESaIS1_EE12_Vector_implC1ERKS2_, symObjAddr: 0x1C08, symBinAddr: 0x100002350, symSize: 0x4C }
  - { offset: 0x21CAC, size: 0x8, addend: 0x0, symName: __ZNSt6vectorISt4pairIiiESaIS1_EE11_S_max_sizeERKS2_, symObjAddr: 0x1BB4, symBinAddr: 0x1000022FC, symSize: 0x54 }
  - { offset: 0x21D63, size: 0x8, addend: 0x0, symName: __ZSt22__final_insertion_sortIN9__gnu_cxx17__normal_iteratorIPiSt6vectorIiSaIiEEEENS0_5__ops15_Iter_less_iterEEvT_S9_T0_, symObjAddr: 0x1B18, symBinAddr: 0x100002260, symSize: 0x9C }
  - { offset: 0x21DC1, size: 0x8, addend: 0x0, symName: __ZSt16__introsort_loopIN9__gnu_cxx17__normal_iteratorIPiSt6vectorIiSaIiEEEElNS0_5__ops15_Iter_less_iterEEvT_S9_T0_T1_, symObjAddr: 0x1A60, symBinAddr: 0x1000021A8, symSize: 0xB8 }
  - { offset: 0x21E5D, size: 0x8, addend: 0x0, symName: __ZSt4__lgIlET_S0_, symObjAddr: 0x1A3C, symBinAddr: 0x100002184, symSize: 0x24 }
  - { offset: 0x21E90, size: 0x8, addend: 0x0, symName: __ZN9__gnu_cxxmiIPiSt6vectorIiSaIiEEEENS_17__normal_iteratorIT_T0_E15difference_typeERKS8_SB_, symObjAddr: 0x19FC, symBinAddr: 0x100002144, symSize: 0x40 }
  - { offset: 0x21EDD, size: 0x8, addend: 0x0, symName: __ZSt8_DestroyIPiEvT_S1_, symObjAddr: 0x19D4, symBinAddr: 0x10000211C, symSize: 0x28 }
  - { offset: 0x21F1F, size: 0x8, addend: 0x0, symName: __ZSt27__uninitialized_default_n_aIPimiET_S1_T0_RSaIT1_E, symObjAddr: 0x19AC, symBinAddr: 0x1000020F4, symSize: 0x28 }
  - { offset: 0x21F82, size: 0x8, addend: 0x0, symName: __ZNSt12_Vector_baseIiSaIiEE13_M_deallocateEPim, symObjAddr: 0x1954, symBinAddr: 0x10000209C, symSize: 0x58 }
  - { offset: 0x22004, size: 0x8, addend: 0x0, symName: __ZNSt12_Vector_baseIiSaIiEE17_M_create_storageEm, symObjAddr: 0x18F4, symBinAddr: 0x10000203C, symSize: 0x60 }
  - { offset: 0x22066, size: 0x8, addend: 0x0, symName: __ZNSt12_Vector_baseIiSaIiEE12_Vector_implC1ERKS0_, symObjAddr: 0x18A8, symBinAddr: 0x100001FF0, symSize: 0x4C }
  - { offset: 0x2210C, size: 0x8, addend: 0x0, symName: __ZNSt6vectorIiSaIiEE11_S_max_sizeERKS0_, symObjAddr: 0x1854, symBinAddr: 0x100001F9C, symSize: 0x54 }
  - { offset: 0x221C3, size: 0x8, addend: 0x0, symName: __ZSt11__bit_widthImEiT_, symObjAddr: 0x1824, symBinAddr: 0x100001F6C, symSize: 0x30 }
  - { offset: 0x22207, size: 0x8, addend: 0x0, symName: __ZSt6__sortIN9__gnu_cxx17__normal_iteratorIPSt4pairIiiESt6vectorIS3_SaIS3_EEEENS0_5__ops15_Iter_comp_iterIZ5solvevEUlRKS3_SC_E_EEEvT_SF_T0_, symObjAddr: 0x17B4, symBinAddr: 0x100001EFC, symSize: 0x70 }
  - { offset: 0x22265, size: 0x8, addend: 0x0, symName: __ZN9__gnu_cxx5__ops16__iter_comp_iterIZ5solvevEUlRKSt4pairIiiES5_E_EENS0_15_Iter_comp_iterIT_EES8_, symObjAddr: 0x177C, symBinAddr: 0x100001EC4, symSize: 0x38 }
  - { offset: 0x22297, size: 0x8, addend: 0x0, symName: __ZSt6__sortIN9__gnu_cxx17__normal_iteratorIPSt4pairIiiESt6vectorIS3_SaIS3_EEEENS0_5__ops15_Iter_less_iterEEvT_SB_T0_, symObjAddr: 0x1704, symBinAddr: 0x100001E4C, symSize: 0x78 }
  - { offset: 0x22321, size: 0x8, addend: 0x0, symName: __ZN9__gnu_cxx17__normal_iteratorIPSt4pairIiiESt6vectorIS2_SaIS2_EEEC1ERKS3_, symObjAddr: 0x16DC, symBinAddr: 0x100001E24, symSize: 0x28 }
  - { offset: 0x2234C, size: 0x8, addend: 0x0, symName: __ZSt22__uninitialized_copy_aIN9__gnu_cxx17__normal_iteratorIPKSt4pairIiiESt6vectorIS3_SaIS3_EEEEPS3_S3_ET0_T_SC_SB_RSaIT1_E, symObjAddr: 0x16AC, symBinAddr: 0x100001DF4, symSize: 0x30 }
  - { offset: 0x223C0, size: 0x8, addend: 0x0, symName: __ZNKSt6vectorISt4pairIiiESaIS1_EE3endEv, symObjAddr: 0x1684, symBinAddr: 0x100001DCC, symSize: 0x28 }
  - { offset: 0x223EA, size: 0x8, addend: 0x0, symName: __ZNKSt6vectorISt4pairIiiESaIS1_EE5beginEv, symObjAddr: 0x1660, symBinAddr: 0x100001DA8, symSize: 0x24 }
  - { offset: 0x22429, size: 0x8, addend: 0x0, symName: __ZNKSt12_Vector_baseISt4pairIiiESaIS1_EE19_M_get_Tp_allocatorEv, symObjAddr: 0x164C, symBinAddr: 0x100001D94, symSize: 0x14 }
  - { offset: 0x22453, size: 0x8, addend: 0x0, symName: __ZNKSt6vectorISt4pairIiiESaIS1_EE4sizeEv, symObjAddr: 0x1624, symBinAddr: 0x100001D6C, symSize: 0x28 }
  - { offset: 0x224C5, size: 0x8, addend: 0x0, symName: __ZNSt4pairIiiEC1IiiLb1EEEOT_OT0_, symObjAddr: 0x15DC, symBinAddr: 0x100001D24, symSize: 0x48 }
  - { offset: 0x22555, size: 0x8, addend: 0x0, symName: __ZNK9__gnu_cxx17__normal_iteratorIPiSt6vectorIiSaIiEEE4baseEv, symObjAddr: 0x15C8, symBinAddr: 0x100001D10, symSize: 0x14 }
  - { offset: 0x2257B, size: 0x8, addend: 0x0, symName: __ZSt13__upper_boundIN9__gnu_cxx17__normal_iteratorIPiSt6vectorIiSaIiEEEEiNS0_5__ops14_Val_less_iterEET_S9_S9_RKT0_T1_, symObjAddr: 0x14C0, symBinAddr: 0x100001C08, symSize: 0x108 }
  - { offset: 0x22725, size: 0x8, addend: 0x0, symName: __ZSt13__lower_boundIN9__gnu_cxx17__normal_iteratorIPiSt6vectorIiSaIiEEEEiNS0_5__ops14_Iter_less_valEET_S9_S9_RKT0_T1_, symObjAddr: 0x13B8, symBinAddr: 0x100001B00, symSize: 0x108 }
  - { offset: 0x2290E, size: 0x8, addend: 0x0, symName: __ZNSt12_Vector_baseISt4pairIiiESaIS1_EE19_M_get_Tp_allocatorEv, symObjAddr: 0x13A4, symBinAddr: 0x100001AEC, symSize: 0x14 }
  - { offset: 0x22938, size: 0x8, addend: 0x0, symName: __ZNSt6vectorISt4pairIiiESaIS1_EE21_M_default_initializeEm, symObjAddr: 0x1354, symBinAddr: 0x100001A9C, symSize: 0x50 }
  - { offset: 0x22997, size: 0x8, addend: 0x0, symName: __ZNSt12_Vector_baseISt4pairIiiESaIS1_EED2Ev, symObjAddr: 0x1304, symBinAddr: 0x100001A4C, symSize: 0x50 }
  - { offset: 0x229F3, size: 0x8, addend: 0x0, symName: __ZNSt12_Vector_baseISt4pairIiiESaIS1_EEC2EmRKS2_, symObjAddr: 0x12B0, symBinAddr: 0x1000019F8, symSize: 0x54 }
  - { offset: 0x22A52, size: 0x8, addend: 0x0, symName: __ZNSt12_Vector_baseISt4pairIiiESaIS1_EE12_Vector_implD1Ev, symObjAddr: 0x1284, symBinAddr: 0x1000019CC, symSize: 0x2C }
  - { offset: 0x22A97, size: 0x8, addend: 0x0, symName: __ZNSt6vectorISt4pairIiiESaIS1_EE17_S_check_init_lenEmRKS2_, symObjAddr: 0x1200, symBinAddr: 0x100001948, symSize: 0x84 }
  - { offset: 0x22B71, size: 0x8, addend: 0x0, symName: __ZNSt15__new_allocatorISt4pairIiiEED2Ev, symObjAddr: 0x11EC, symBinAddr: 0x100001934, symSize: 0x14 }
  - { offset: 0x22BA9, size: 0x8, addend: 0x0, symName: __ZSt6__sortIN9__gnu_cxx17__normal_iteratorIPiSt6vectorIiSaIiEEEENS0_5__ops15_Iter_less_iterEEvT_S9_T0_, symObjAddr: 0x1174, symBinAddr: 0x1000018BC, symSize: 0x78 }
  - { offset: 0x22C33, size: 0x8, addend: 0x0, symName: __ZN9__gnu_cxx17__normal_iteratorIPiSt6vectorIiSaIiEEEC1ERKS1_, symObjAddr: 0x114C, symBinAddr: 0x100001894, symSize: 0x28 }
  - { offset: 0x22C9D, size: 0x8, addend: 0x0, symName: __ZNSt12_Vector_baseIiSaIiEE19_M_get_Tp_allocatorEv, symObjAddr: 0x1138, symBinAddr: 0x100001880, symSize: 0x14 }
  - { offset: 0x22CC7, size: 0x8, addend: 0x0, symName: __ZNSt6vectorIiSaIiEE21_M_default_initializeEm, symObjAddr: 0x10E8, symBinAddr: 0x100001830, symSize: 0x50 }
  - { offset: 0x22D26, size: 0x8, addend: 0x0, symName: __ZNSt12_Vector_baseIiSaIiEED2Ev, symObjAddr: 0x1098, symBinAddr: 0x1000017E0, symSize: 0x50 }
  - { offset: 0x22D82, size: 0x8, addend: 0x0, symName: __ZNSt12_Vector_baseIiSaIiEEC2EmRKS0_, symObjAddr: 0x1044, symBinAddr: 0x10000178C, symSize: 0x54 }
  - { offset: 0x22DE1, size: 0x8, addend: 0x0, symName: __ZNSt12_Vector_baseIiSaIiEE12_Vector_implD1Ev, symObjAddr: 0x1018, symBinAddr: 0x100001760, symSize: 0x2C }
  - { offset: 0x22E26, size: 0x8, addend: 0x0, symName: __ZNSt6vectorIiSaIiEE17_S_check_init_lenEmRKS0_, symObjAddr: 0xF94, symBinAddr: 0x1000016DC, symSize: 0x84 }
  - { offset: 0x22F00, size: 0x8, addend: 0x0, symName: __ZNSt15__new_allocatorIiED2Ev, symObjAddr: 0xF80, symBinAddr: 0x1000016C8, symSize: 0x14 }
  - { offset: 0x22F38, size: 0x8, addend: 0x0, symName: __ZSt3minIiERKT_S2_S2_, symObjAddr: 0xF48, symBinAddr: 0x100001690, symSize: 0x38 }
  - { offset: 0x22F7A, size: 0x8, addend: 0x0, symName: __ZSt3maxIiERKT_S2_S2_, symObjAddr: 0xF10, symBinAddr: 0x100001658, symSize: 0x38 }
  - { offset: 0x22FBE, size: 0x8, addend: 0x0, symName: __ZSt4sortIN9__gnu_cxx17__normal_iteratorIPSt4pairIiiESt6vectorIS3_SaIS3_EEEEZ5solvevEUlRKS3_SA_E_EvT_SC_T0_, symObjAddr: 0xED0, symBinAddr: 0x100001618, symSize: 0x40 }
  - { offset: 0x2301C, size: 0x8, addend: 0x0, symName: __ZSt4sortIN9__gnu_cxx17__normal_iteratorIPSt4pairIiiESt6vectorIS3_SaIS3_EEEEEvT_S9_, symObjAddr: 0xE98, symBinAddr: 0x1000015E0, symSize: 0x38 }
  - { offset: 0x23064, size: 0x8, addend: 0x0, symName: __ZNSt6vectorISt4pairIiiESaIS1_EE3endEv, symObjAddr: 0xE70, symBinAddr: 0x1000015B8, symSize: 0x28 }
  - { offset: 0x2308E, size: 0x8, addend: 0x0, symName: __ZNSt6vectorISt4pairIiiESaIS1_EE5beginEv, symObjAddr: 0xE4C, symBinAddr: 0x100001594, symSize: 0x24 }
  - { offset: 0x230E0, size: 0x8, addend: 0x0, symName: __ZNSt6vectorISt4pairIiiESaIS1_EEC1ERKS3_, symObjAddr: 0xD38, symBinAddr: 0x100001480, symSize: 0x114 }
  - { offset: 0x231F3, size: 0x8, addend: 0x0, symName: __ZNSt4pairIiiEaSEOS0_, symObjAddr: 0xCF0, symBinAddr: 0x100001438, symSize: 0x48 }
  - { offset: 0x2322A, size: 0x8, addend: 0x0, symName: __ZSt9make_pairIiiESt4pairINSt25__strip_reference_wrapperINSt5decayIT_E4typeEE6__typeENS1_INS2_IT0_E4typeEE6__typeEEOS3_OS8_, symObjAddr: 0xCA4, symBinAddr: 0x1000013EC, symSize: 0x4C }
  - { offset: 0x2327B, size: 0x8, addend: 0x0, symName: __ZNSt6vectorISt4pairIiiESaIS1_EEixEm, symObjAddr: 0xC7C, symBinAddr: 0x1000013C4, symSize: 0x28 }
  - { offset: 0x232E1, size: 0x8, addend: 0x0, symName: __ZNK9__gnu_cxx17__normal_iteratorIPiSt6vectorIiSaIiEEEdeEv, symObjAddr: 0xC64, symBinAddr: 0x1000013AC, symSize: 0x18 }
  - { offset: 0x23307, size: 0x8, addend: 0x0, symName: __ZN9__gnu_cxxneIPiSt6vectorIiSaIiEEEEbRKNS_17__normal_iteratorIT_T0_EESA_, symObjAddr: 0xC20, symBinAddr: 0x100001368, symSize: 0x44 }
  - { offset: 0x23354, size: 0x8, addend: 0x0, symName: __ZSt11upper_boundIN9__gnu_cxx17__normal_iteratorIPiSt6vectorIiSaIiEEEEiET_S7_S7_RKT0_, symObjAddr: 0xBE4, symBinAddr: 0x10000132C, symSize: 0x3C }
  - { offset: 0x233B2, size: 0x8, addend: 0x0, symName: __ZSt11lower_boundIN9__gnu_cxx17__normal_iteratorIPiSt6vectorIiSaIiEEEEiET_S7_S7_RKT0_, symObjAddr: 0xBA8, symBinAddr: 0x1000012F0, symSize: 0x3C }
  - { offset: 0x23438, size: 0x8, addend: 0x0, symName: __ZNSt6vectorISt4pairIiiESaIS1_EED1Ev, symObjAddr: 0xB4C, symBinAddr: 0x100001294, symSize: 0x5C }
  - { offset: 0x234CA, size: 0x8, addend: 0x0, symName: __ZNSt6vectorISt4pairIiiESaIS1_EEC1EmRKS2_, symObjAddr: 0xAE4, symBinAddr: 0x10000122C, symSize: 0x68 }
  - { offset: 0x23534, size: 0x8, addend: 0x0, symName: __ZSt4sortIN9__gnu_cxx17__normal_iteratorIPiSt6vectorIiSaIiEEEEEvT_S7_, symObjAddr: 0xAAC, symBinAddr: 0x1000011F4, symSize: 0x38 }
  - { offset: 0x2357C, size: 0x8, addend: 0x0, symName: __ZNSt6vectorIiSaIiEE3endEv, symObjAddr: 0xA84, symBinAddr: 0x1000011CC, symSize: 0x28 }
  - { offset: 0x235A6, size: 0x8, addend: 0x0, symName: __ZNSt6vectorIiSaIiEE5beginEv, symObjAddr: 0xA60, symBinAddr: 0x1000011A8, symSize: 0x24 }
  - { offset: 0x235D0, size: 0x8, addend: 0x0, symName: __ZNSt6vectorIiSaIiEEixEm, symObjAddr: 0xA38, symBinAddr: 0x100001180, symSize: 0x28 }
  - { offset: 0x2362F, size: 0x8, addend: 0x0, symName: __ZNSt6vectorIiSaIiEED1Ev, symObjAddr: 0x9DC, symBinAddr: 0x100001124, symSize: 0x5C }
  - { offset: 0x236C1, size: 0x8, addend: 0x0, symName: __ZNSt6vectorIiSaIiEEC1EmRKS0_, symObjAddr: 0x974, symBinAddr: 0x1000010BC, symSize: 0x68 }
  - { offset: 0x23731, size: 0x8, addend: 0x0, symName: __ZSt7forwardIiEOT_RNSt16remove_referenceIS0_E4typeE, symObjAddr: 0x960, symBinAddr: 0x1000010A8, symSize: 0x14 }
  - { offset: 0x2376A, size: 0x8, addend: 0x0, symName: _main, symObjAddr: 0x8F0, symBinAddr: 0x100001038, symSize: 0x70 }
  - { offset: 0x2379A, size: 0x8, addend: 0x0, symName: __Z5solvev, symObjAddr: 0xE0, symBinAddr: 0x100000828, symSize: 0x810 }
  - { offset: 0x2389C, size: 0x8, addend: 0x0, symName: __ZZ5solvevENKUlRKSt4pairIiiES2_E_clES2_S2_, symObjAddr: 0xAC, symBinAddr: 0x1000007F4, symSize: 0x34 }
  - { offset: 0x23E9B, size: 0x8, addend: 0x0, symName: __ZSt3minImERKT_S2_S2_, symObjAddr: 0x74, symBinAddr: 0x1000007BC, symSize: 0x38 }
  - { offset: 0x23EE8, size: 0x8, addend: 0x0, symName: __ZnwmPv, symObjAddr: 0x5C, symBinAddr: 0x1000007A4, symSize: 0x18 }
  - { offset: 0x23F1A, size: 0x8, addend: 0x0, symName: __ZSt17__size_to_integerm, symObjAddr: 0x48, symBinAddr: 0x100000790, symSize: 0x14 }
  - { offset: 0x23F44, size: 0x8, addend: 0x0, symName: __ZN9__gnu_cxx5__ops15__val_comp_iterENS0_15_Iter_less_iterE, symObjAddr: 0x30, symBinAddr: 0x100000778, symSize: 0x18 }
  - { offset: 0x23F66, size: 0x8, addend: 0x0, symName: __ZN9__gnu_cxx5__ops15__val_less_iterEv, symObjAddr: 0x28, symBinAddr: 0x100000770, symSize: 0x8 }
  - { offset: 0x23F7E, size: 0x8, addend: 0x0, symName: __ZN9__gnu_cxx5__ops15__iter_less_valEv, symObjAddr: 0x20, symBinAddr: 0x100000768, symSize: 0x8 }
  - { offset: 0x23FB9, size: 0x8, addend: 0x0, symName: __ZN9__gnu_cxx5__ops14_Iter_less_valC1ENS0_15_Iter_less_iterE, symObjAddr: 0x8, symBinAddr: 0x100000750, symSize: 0x18 }
  - { offset: 0x23FE4, size: 0x8, addend: 0x0, symName: __ZN9__gnu_cxx5__ops16__iter_less_iterEv, symObjAddr: 0x0, symBinAddr: 0x100000748, symSize: 0x8 }
...
